
jit:     file format elf64-x86-64


Disassembly of section .init:

0000000000001000 <_init>:
    1000:	f3 0f 1e fa          	endbr64 
    1004:	48 83 ec 08          	sub    $0x8,%rsp
    1008:	48 8b 05 d9 4f 00 00 	mov    0x4fd9(%rip),%rax        # 5fe8 <__gmon_start__@Base>
    100f:	48 85 c0             	test   %rax,%rax
    1012:	74 02                	je     1016 <_init+0x16>
    1014:	ff d0                	call   *%rax
    1016:	48 83 c4 08          	add    $0x8,%rsp
    101a:	c3                   	ret    

Disassembly of section .plt:

0000000000001020 <.plt>:
    1020:	ff 35 22 4f 00 00    	push   0x4f22(%rip)        # 5f48 <_GLOBAL_OFFSET_TABLE_+0x8>
    1026:	f2 ff 25 23 4f 00 00 	bnd jmp *0x4f23(%rip)        # 5f50 <_GLOBAL_OFFSET_TABLE_+0x10>
    102d:	0f 1f 00             	nopl   (%rax)
    1030:	f3 0f 1e fa          	endbr64 
    1034:	68 00 00 00 00       	push   $0x0
    1039:	f2 e9 e1 ff ff ff    	bnd jmp 1020 <_init+0x20>
    103f:	90                   	nop
    1040:	f3 0f 1e fa          	endbr64 
    1044:	68 01 00 00 00       	push   $0x1
    1049:	f2 e9 d1 ff ff ff    	bnd jmp 1020 <_init+0x20>
    104f:	90                   	nop
    1050:	f3 0f 1e fa          	endbr64 
    1054:	68 02 00 00 00       	push   $0x2
    1059:	f2 e9 c1 ff ff ff    	bnd jmp 1020 <_init+0x20>
    105f:	90                   	nop
    1060:	f3 0f 1e fa          	endbr64 
    1064:	68 03 00 00 00       	push   $0x3
    1069:	f2 e9 b1 ff ff ff    	bnd jmp 1020 <_init+0x20>
    106f:	90                   	nop
    1070:	f3 0f 1e fa          	endbr64 
    1074:	68 04 00 00 00       	push   $0x4
    1079:	f2 e9 a1 ff ff ff    	bnd jmp 1020 <_init+0x20>
    107f:	90                   	nop
    1080:	f3 0f 1e fa          	endbr64 
    1084:	68 05 00 00 00       	push   $0x5
    1089:	f2 e9 91 ff ff ff    	bnd jmp 1020 <_init+0x20>
    108f:	90                   	nop
    1090:	f3 0f 1e fa          	endbr64 
    1094:	68 06 00 00 00       	push   $0x6
    1099:	f2 e9 81 ff ff ff    	bnd jmp 1020 <_init+0x20>
    109f:	90                   	nop
    10a0:	f3 0f 1e fa          	endbr64 
    10a4:	68 07 00 00 00       	push   $0x7
    10a9:	f2 e9 71 ff ff ff    	bnd jmp 1020 <_init+0x20>
    10af:	90                   	nop
    10b0:	f3 0f 1e fa          	endbr64 
    10b4:	68 08 00 00 00       	push   $0x8
    10b9:	f2 e9 61 ff ff ff    	bnd jmp 1020 <_init+0x20>
    10bf:	90                   	nop
    10c0:	f3 0f 1e fa          	endbr64 
    10c4:	68 09 00 00 00       	push   $0x9
    10c9:	f2 e9 51 ff ff ff    	bnd jmp 1020 <_init+0x20>
    10cf:	90                   	nop
    10d0:	f3 0f 1e fa          	endbr64 
    10d4:	68 0a 00 00 00       	push   $0xa
    10d9:	f2 e9 41 ff ff ff    	bnd jmp 1020 <_init+0x20>
    10df:	90                   	nop
    10e0:	f3 0f 1e fa          	endbr64 
    10e4:	68 0b 00 00 00       	push   $0xb
    10e9:	f2 e9 31 ff ff ff    	bnd jmp 1020 <_init+0x20>
    10ef:	90                   	nop
    10f0:	f3 0f 1e fa          	endbr64 
    10f4:	68 0c 00 00 00       	push   $0xc
    10f9:	f2 e9 21 ff ff ff    	bnd jmp 1020 <_init+0x20>
    10ff:	90                   	nop
    1100:	f3 0f 1e fa          	endbr64 
    1104:	68 0d 00 00 00       	push   $0xd
    1109:	f2 e9 11 ff ff ff    	bnd jmp 1020 <_init+0x20>
    110f:	90                   	nop
    1110:	f3 0f 1e fa          	endbr64 
    1114:	68 0e 00 00 00       	push   $0xe
    1119:	f2 e9 01 ff ff ff    	bnd jmp 1020 <_init+0x20>
    111f:	90                   	nop

Disassembly of section .plt.got:

0000000000001120 <__cxa_finalize@plt>:
    1120:	f3 0f 1e fa          	endbr64 
    1124:	f2 ff 25 cd 4e 00 00 	bnd jmp *0x4ecd(%rip)        # 5ff8 <__cxa_finalize@GLIBC_2.2.5>
    112b:	0f 1f 44 00 00       	nopl   0x0(%rax,%rax,1)

Disassembly of section .plt.sec:

0000000000001130 <free@plt>:
    1130:	f3 0f 1e fa          	endbr64 
    1134:	f2 ff 25 1d 4e 00 00 	bnd jmp *0x4e1d(%rip)        # 5f58 <free@GLIBC_2.2.5>
    113b:	0f 1f 44 00 00       	nopl   0x0(%rax,%rax,1)

0000000000001140 <fclose@plt>:
    1140:	f3 0f 1e fa          	endbr64 
    1144:	f2 ff 25 15 4e 00 00 	bnd jmp *0x4e15(%rip)        # 5f60 <fclose@GLIBC_2.2.5>
    114b:	0f 1f 44 00 00       	nopl   0x0(%rax,%rax,1)

0000000000001150 <__stack_chk_fail@plt>:
    1150:	f3 0f 1e fa          	endbr64 
    1154:	f2 ff 25 0d 4e 00 00 	bnd jmp *0x4e0d(%rip)        # 5f68 <__stack_chk_fail@GLIBC_2.4>
    115b:	0f 1f 44 00 00       	nopl   0x0(%rax,%rax,1)

0000000000001160 <mmap@plt>:
    1160:	f3 0f 1e fa          	endbr64 
    1164:	f2 ff 25 05 4e 00 00 	bnd jmp *0x4e05(%rip)        # 5f70 <mmap@GLIBC_2.2.5>
    116b:	0f 1f 44 00 00       	nopl   0x0(%rax,%rax,1)

0000000000001170 <printf@plt>:
    1170:	f3 0f 1e fa          	endbr64 
    1174:	f2 ff 25 fd 4d 00 00 	bnd jmp *0x4dfd(%rip)        # 5f78 <printf@GLIBC_2.2.5>
    117b:	0f 1f 44 00 00       	nopl   0x0(%rax,%rax,1)

0000000000001180 <__assert_fail@plt>:
    1180:	f3 0f 1e fa          	endbr64 
    1184:	f2 ff 25 f5 4d 00 00 	bnd jmp *0x4df5(%rip)        # 5f80 <__assert_fail@GLIBC_2.2.5>
    118b:	0f 1f 44 00 00       	nopl   0x0(%rax,%rax,1)

0000000000001190 <memset@plt>:
    1190:	f3 0f 1e fa          	endbr64 
    1194:	f2 ff 25 ed 4d 00 00 	bnd jmp *0x4ded(%rip)        # 5f88 <memset@GLIBC_2.2.5>
    119b:	0f 1f 44 00 00       	nopl   0x0(%rax,%rax,1)

00000000000011a0 <calloc@plt>:
    11a0:	f3 0f 1e fa          	endbr64 
    11a4:	f2 ff 25 e5 4d 00 00 	bnd jmp *0x4de5(%rip)        # 5f90 <calloc@GLIBC_2.2.5>
    11ab:	0f 1f 44 00 00       	nopl   0x0(%rax,%rax,1)

00000000000011b0 <fprintf@plt>:
    11b0:	f3 0f 1e fa          	endbr64 
    11b4:	f2 ff 25 dd 4d 00 00 	bnd jmp *0x4ddd(%rip)        # 5f98 <fprintf@GLIBC_2.2.5>
    11bb:	0f 1f 44 00 00       	nopl   0x0(%rax,%rax,1)

00000000000011c0 <stat@plt>:
    11c0:	f3 0f 1e fa          	endbr64 
    11c4:	f2 ff 25 d5 4d 00 00 	bnd jmp *0x4dd5(%rip)        # 5fa0 <stat@GLIBC_2.33>
    11cb:	0f 1f 44 00 00       	nopl   0x0(%rax,%rax,1)

00000000000011d0 <memcpy@plt>:
    11d0:	f3 0f 1e fa          	endbr64 
    11d4:	f2 ff 25 cd 4d 00 00 	bnd jmp *0x4dcd(%rip)        # 5fa8 <memcpy@GLIBC_2.14>
    11db:	0f 1f 44 00 00       	nopl   0x0(%rax,%rax,1)

00000000000011e0 <realloc@plt>:
    11e0:	f3 0f 1e fa          	endbr64 
    11e4:	f2 ff 25 c5 4d 00 00 	bnd jmp *0x4dc5(%rip)        # 5fb0 <realloc@GLIBC_2.2.5>
    11eb:	0f 1f 44 00 00       	nopl   0x0(%rax,%rax,1)

00000000000011f0 <fopen@plt>:
    11f0:	f3 0f 1e fa          	endbr64 
    11f4:	f2 ff 25 bd 4d 00 00 	bnd jmp *0x4dbd(%rip)        # 5fb8 <fopen@GLIBC_2.2.5>
    11fb:	0f 1f 44 00 00       	nopl   0x0(%rax,%rax,1)

0000000000001200 <fwrite@plt>:
    1200:	f3 0f 1e fa          	endbr64 
    1204:	f2 ff 25 b5 4d 00 00 	bnd jmp *0x4db5(%rip)        # 5fc0 <fwrite@GLIBC_2.2.5>
    120b:	0f 1f 44 00 00       	nopl   0x0(%rax,%rax,1)

0000000000001210 <getc@plt>:
    1210:	f3 0f 1e fa          	endbr64 
    1214:	f2 ff 25 ad 4d 00 00 	bnd jmp *0x4dad(%rip)        # 5fc8 <getc@GLIBC_2.2.5>
    121b:	0f 1f 44 00 00       	nopl   0x0(%rax,%rax,1)

Disassembly of section .text:

0000000000001220 <_start>:
    1220:	f3 0f 1e fa          	endbr64 
    1224:	31 ed                	xor    %ebp,%ebp
    1226:	49 89 d1             	mov    %rdx,%r9
    1229:	5e                   	pop    %rsi
    122a:	48 89 e2             	mov    %rsp,%rdx
    122d:	48 83 e4 f0          	and    $0xfffffffffffffff0,%rsp
    1231:	50                   	push   %rax
    1232:	54                   	push   %rsp
    1233:	45 31 c0             	xor    %r8d,%r8d
    1236:	31 c9                	xor    %ecx,%ecx
    1238:	48 8d 3d ca 00 00 00 	lea    0xca(%rip),%rdi        # 1309 <main>
    123f:	ff 15 93 4d 00 00    	call   *0x4d93(%rip)        # 5fd8 <__libc_start_main@GLIBC_2.34>
    1245:	f4                   	hlt    
    1246:	66 2e 0f 1f 84 00 00 	cs nopw 0x0(%rax,%rax,1)
    124d:	00 00 00 

0000000000001250 <deregister_tm_clones>:
    1250:	48 8d 3d b9 4d 00 00 	lea    0x4db9(%rip),%rdi        # 6010 <__TMC_END__>
    1257:	48 8d 05 b2 4d 00 00 	lea    0x4db2(%rip),%rax        # 6010 <__TMC_END__>
    125e:	48 39 f8             	cmp    %rdi,%rax
    1261:	74 15                	je     1278 <deregister_tm_clones+0x28>
    1263:	48 8b 05 76 4d 00 00 	mov    0x4d76(%rip),%rax        # 5fe0 <_ITM_deregisterTMCloneTable@Base>
    126a:	48 85 c0             	test   %rax,%rax
    126d:	74 09                	je     1278 <deregister_tm_clones+0x28>
    126f:	ff e0                	jmp    *%rax
    1271:	0f 1f 80 00 00 00 00 	nopl   0x0(%rax)
    1278:	c3                   	ret    
    1279:	0f 1f 80 00 00 00 00 	nopl   0x0(%rax)

0000000000001280 <register_tm_clones>:
    1280:	48 8d 3d 89 4d 00 00 	lea    0x4d89(%rip),%rdi        # 6010 <__TMC_END__>
    1287:	48 8d 35 82 4d 00 00 	lea    0x4d82(%rip),%rsi        # 6010 <__TMC_END__>
    128e:	48 29 fe             	sub    %rdi,%rsi
    1291:	48 89 f0             	mov    %rsi,%rax
    1294:	48 c1 ee 3f          	shr    $0x3f,%rsi
    1298:	48 c1 f8 03          	sar    $0x3,%rax
    129c:	48 01 c6             	add    %rax,%rsi
    129f:	48 d1 fe             	sar    %rsi
    12a2:	74 14                	je     12b8 <register_tm_clones+0x38>
    12a4:	48 8b 05 45 4d 00 00 	mov    0x4d45(%rip),%rax        # 5ff0 <_ITM_registerTMCloneTable@Base>
    12ab:	48 85 c0             	test   %rax,%rax
    12ae:	74 08                	je     12b8 <register_tm_clones+0x38>
    12b0:	ff e0                	jmp    *%rax
    12b2:	66 0f 1f 44 00 00    	nopw   0x0(%rax,%rax,1)
    12b8:	c3                   	ret    
    12b9:	0f 1f 80 00 00 00 00 	nopl   0x0(%rax)

00000000000012c0 <__do_global_dtors_aux>:
    12c0:	f3 0f 1e fa          	endbr64 
    12c4:	80 3d 7d 4d 00 00 00 	cmpb   $0x0,0x4d7d(%rip)        # 6048 <completed.0>
    12cb:	75 2b                	jne    12f8 <__do_global_dtors_aux+0x38>
    12cd:	55                   	push   %rbp
    12ce:	48 83 3d 22 4d 00 00 	cmpq   $0x0,0x4d22(%rip)        # 5ff8 <__cxa_finalize@GLIBC_2.2.5>
    12d5:	00 
    12d6:	48 89 e5             	mov    %rsp,%rbp
    12d9:	74 0c                	je     12e7 <__do_global_dtors_aux+0x27>
    12db:	48 8b 3d 26 4d 00 00 	mov    0x4d26(%rip),%rdi        # 6008 <__dso_handle>
    12e2:	e8 39 fe ff ff       	call   1120 <__cxa_finalize@plt>
    12e7:	e8 64 ff ff ff       	call   1250 <deregister_tm_clones>
    12ec:	c6 05 55 4d 00 00 01 	movb   $0x1,0x4d55(%rip)        # 6048 <completed.0>
    12f3:	5d                   	pop    %rbp
    12f4:	c3                   	ret    
    12f5:	0f 1f 00             	nopl   (%rax)
    12f8:	c3                   	ret    
    12f9:	0f 1f 80 00 00 00 00 	nopl   0x0(%rax)

0000000000001300 <frame_dummy>:
    1300:	f3 0f 1e fa          	endbr64 
    1304:	e9 77 ff ff ff       	jmp    1280 <register_tm_clones>

0000000000001309 <main>:
    1309:	f3 0f 1e fa          	endbr64 
    130d:	55                   	push   %rbp
    130e:	48 89 e5             	mov    %rsp,%rbp
    1311:	48 81 ec f0 00 00 00 	sub    $0xf0,%rsp
    1318:	89 bd 1c ff ff ff    	mov    %edi,-0xe4(%rbp)
    131e:	48 89 b5 10 ff ff ff 	mov    %rsi,-0xf0(%rbp)
    1325:	64 48 8b 04 25 28 00 	mov    %fs:0x28,%rax
    132c:	00 00 
    132e:	48 89 45 f8          	mov    %rax,-0x8(%rbp)
    1332:	31 c0                	xor    %eax,%eax
    1334:	83 bd 1c ff ff ff 02 	cmpl   $0x2,-0xe4(%rbp)
    133b:	74 2d                	je     136a <main+0x61>
    133d:	48 8b 05 fc 4c 00 00 	mov    0x4cfc(%rip),%rax        # 6040 <stderr@GLIBC_2.2.5>
    1344:	48 89 c1             	mov    %rax,%rcx
    1347:	ba 1c 00 00 00       	mov    $0x1c,%edx
    134c:	be 01 00 00 00       	mov    $0x1,%esi
    1351:	48 8d 05 b8 2c 00 00 	lea    0x2cb8(%rip),%rax        # 4010 <_IO_stdin_used+0x10>
    1358:	48 89 c7             	mov    %rax,%rdi
    135b:	e8 a0 fe ff ff       	call   1200 <fwrite@plt>
    1360:	b8 01 00 00 00       	mov    $0x1,%eax
    1365:	e9 0f 03 00 00       	jmp    1679 <main+0x370>
    136a:	48 8b 85 10 ff ff ff 	mov    -0xf0(%rbp),%rax
    1371:	48 83 c0 08          	add    $0x8,%rax
    1375:	48 8b 00             	mov    (%rax),%rax
    1378:	48 8d 15 ae 2c 00 00 	lea    0x2cae(%rip),%rdx        # 402d <_IO_stdin_used+0x2d>
    137f:	48 89 d6             	mov    %rdx,%rsi
    1382:	48 89 c7             	mov    %rax,%rdi
    1385:	e8 66 fe ff ff       	call   11f0 <fopen@plt>
    138a:	48 89 85 40 ff ff ff 	mov    %rax,-0xc0(%rbp)
    1391:	48 83 bd 40 ff ff ff 	cmpq   $0x0,-0xc0(%rbp)
    1398:	00 
    1399:	75 36                	jne    13d1 <main+0xc8>
    139b:	48 8b 85 10 ff ff ff 	mov    -0xf0(%rbp),%rax
    13a2:	48 83 c0 08          	add    $0x8,%rax
    13a6:	48 8b 10             	mov    (%rax),%rdx
    13a9:	48 8b 05 90 4c 00 00 	mov    0x4c90(%rip),%rax        # 6040 <stderr@GLIBC_2.2.5>
    13b0:	48 8d 0d 78 2c 00 00 	lea    0x2c78(%rip),%rcx        # 402f <_IO_stdin_used+0x2f>
    13b7:	48 89 ce             	mov    %rcx,%rsi
    13ba:	48 89 c7             	mov    %rax,%rdi
    13bd:	b8 00 00 00 00       	mov    $0x0,%eax
    13c2:	e8 e9 fd ff ff       	call   11b0 <fprintf@plt>
    13c7:	b8 01 00 00 00       	mov    $0x1,%eax
    13cc:	e9 a8 02 00 00       	jmp    1679 <main+0x370>
    13d1:	c7 05 85 4c 00 00 00 	movl   $0x0,0x4c85(%rip)        # 6060 <gs>
    13d8:	00 00 00 
    13db:	c7 05 97 4c 00 00 00 	movl   $0x0,0x4c97(%rip)        # 607c <gs+0x1c>
    13e2:	00 00 00 
    13e5:	c7 05 91 4c 00 00 80 	movl   $0x80,0x4c91(%rip)        # 6080 <gs+0x20>
    13ec:	00 00 00 
    13ef:	48 c7 05 6a 4c 00 00 	movq   $0x0,0x4c6a(%rip)        # 6064 <gs+0x4>
    13f6:	00 00 00 00 
    13fa:	8b 05 80 4c 00 00    	mov    0x4c80(%rip),%eax        # 6080 <gs+0x20>
    1400:	89 c0                	mov    %eax,%eax
    1402:	be 08 00 00 00       	mov    $0x8,%esi
    1407:	48 89 c7             	mov    %rax,%rdi
    140a:	e8 91 fd ff ff       	call   11a0 <calloc@plt>
    140f:	48 89 05 56 4c 00 00 	mov    %rax,0x4c56(%rip)        # 606c <gs+0xc>
    1416:	8b 05 64 4c 00 00    	mov    0x4c64(%rip),%eax        # 6080 <gs+0x20>
    141c:	89 c0                	mov    %eax,%eax
    141e:	be 04 00 00 00       	mov    $0x4,%esi
    1423:	48 89 c7             	mov    %rax,%rdi
    1426:	e8 75 fd ff ff       	call   11a0 <calloc@plt>
    142b:	48 89 05 42 4c 00 00 	mov    %rax,0x4c42(%rip)        # 6074 <gs+0x14>
    1432:	c7 05 50 4c 00 00 00 	movl   $0x0,0x4c50(%rip)        # 608c <gs+0x2c>
    1439:	00 00 00 
    143c:	c7 05 4a 4c 00 00 80 	movl   $0x80,0x4c4a(%rip)        # 6090 <gs+0x30>
    1443:	00 00 00 
    1446:	8b 05 44 4c 00 00    	mov    0x4c44(%rip),%eax        # 6090 <gs+0x30>
    144c:	89 c0                	mov    %eax,%eax
    144e:	be 04 00 00 00       	mov    $0x4,%esi
    1453:	48 89 c7             	mov    %rax,%rdi
    1456:	e8 45 fd ff ff       	call   11a0 <calloc@plt>
    145b:	48 89 05 22 4c 00 00 	mov    %rax,0x4c22(%rip)        # 6084 <gs+0x24>
    1462:	48 c7 85 30 ff ff ff 	movq   $0x0,-0xd0(%rbp)
    1469:	00 00 00 00 
    146d:	48 8b 85 10 ff ff ff 	mov    -0xf0(%rbp),%rax
    1474:	48 83 c0 08          	add    $0x8,%rax
    1478:	48 8b 00             	mov    (%rax),%rax
    147b:	48 8d 95 60 ff ff ff 	lea    -0xa0(%rbp),%rdx
    1482:	48 89 d6             	mov    %rdx,%rsi
    1485:	48 89 c7             	mov    %rax,%rdi
    1488:	e8 33 fd ff ff       	call   11c0 <stat@plt>
    148d:	85 c0                	test   %eax,%eax
    148f:	75 42                	jne    14d3 <main+0x1ca>
    1491:	48 8b 45 90          	mov    -0x70(%rbp),%rax
    1495:	48 89 85 30 ff ff ff 	mov    %rax,-0xd0(%rbp)
    149c:	48 8b 85 30 ff ff ff 	mov    -0xd0(%rbp),%rax
    14a3:	83 e0 03             	and    $0x3,%eax
    14a6:	48 85 c0             	test   %rax,%rax
    14a9:	74 28                	je     14d3 <main+0x1ca>
    14ab:	48 8d 05 c5 2b 00 00 	lea    0x2bc5(%rip),%rax        # 4077 <__PRETTY_FUNCTION__.1>
    14b2:	48 89 c1             	mov    %rax,%rcx
    14b5:	ba 44 00 00 00       	mov    $0x44,%edx
    14ba:	48 8d 05 8c 2b 00 00 	lea    0x2b8c(%rip),%rax        # 404d <_IO_stdin_used+0x4d>
    14c1:	48 89 c6             	mov    %rax,%rsi
    14c4:	48 8d 05 88 2b 00 00 	lea    0x2b88(%rip),%rax        # 4053 <_IO_stdin_used+0x53>
    14cb:	48 89 c7             	mov    %rax,%rdi
    14ce:	e8 ad fc ff ff       	call   1180 <__assert_fail@plt>
    14d3:	48 8b 95 30 ff ff ff 	mov    -0xd0(%rbp),%rdx
    14da:	48 89 d0             	mov    %rdx,%rax
    14dd:	48 c1 e0 04          	shl    $0x4,%rax
    14e1:	48 29 d0             	sub    %rdx,%rax
    14e4:	48 01 c0             	add    %rax,%rax
    14e7:	48 89 c7             	mov    %rax,%rdi
    14ea:	e8 a0 01 00 00       	call   168f <initialize_zero_segment>
    14ef:	48 89 85 48 ff ff ff 	mov    %rax,-0xb8(%rbp)
    14f6:	48 8b 85 30 ff ff ff 	mov    -0xd0(%rbp),%rax
    14fd:	be 04 00 00 00       	mov    $0x4,%esi
    1502:	48 89 c7             	mov    %rax,%rdi
    1505:	e8 96 fc ff ff       	call   11a0 <calloc@plt>
    150a:	48 89 85 50 ff ff ff 	mov    %rax,-0xb0(%rbp)
    1511:	48 8b 8d 30 ff ff ff 	mov    -0xd0(%rbp),%rcx
    1518:	48 8b 95 40 ff ff ff 	mov    -0xc0(%rbp),%rdx
    151f:	48 8b b5 50 ff ff ff 	mov    -0xb0(%rbp),%rsi
    1526:	48 8b 85 48 ff ff ff 	mov    -0xb8(%rbp),%rax
    152d:	48 89 c7             	mov    %rax,%rdi
    1530:	e8 df 01 00 00       	call   1714 <load_zero_segment>
    1535:	48 8b 05 30 4b 00 00 	mov    0x4b30(%rip),%rax        # 606c <gs+0xc>
    153c:	48 8b 95 50 ff ff ff 	mov    -0xb0(%rbp),%rdx
    1543:	48 89 10             	mov    %rdx,(%rax)
    1546:	48 8b 85 30 ff ff ff 	mov    -0xd0(%rbp),%rax
    154d:	48 c1 e8 02          	shr    $0x2,%rax
    1551:	48 89 c2             	mov    %rax,%rdx
    1554:	48 8b 05 19 4b 00 00 	mov    0x4b19(%rip),%rax        # 6074 <gs+0x14>
    155b:	89 10                	mov    %edx,(%rax)
    155d:	8b 05 19 4b 00 00    	mov    0x4b19(%rip),%eax        # 607c <gs+0x1c>
    1563:	83 c0 01             	add    $0x1,%eax
    1566:	89 05 10 4b 00 00    	mov    %eax,0x4b10(%rip)        # 607c <gs+0x1c>
    156c:	48 8b 85 48 ff ff ff 	mov    -0xb8(%rbp),%rax
    1573:	48 89 05 ea 4a 00 00 	mov    %rax,0x4aea(%rip)        # 6064 <gs+0x4>
    157a:	48 8b 85 48 ff ff ff 	mov    -0xb8(%rbp),%rax
    1581:	48 89 85 38 ff ff ff 	mov    %rax,-0xc8(%rbp)
    1588:	49 c7 c0 00 00 00 00 	mov    $0x0,%r8
    158f:	49 c7 c1 00 00 00 00 	mov    $0x0,%r9
    1596:	49 c7 c2 00 00 00 00 	mov    $0x0,%r10
    159d:	49 c7 c3 00 00 00 00 	mov    $0x0,%r11
    15a4:	49 c7 c4 00 00 00 00 	mov    $0x0,%r12
    15ab:	49 c7 c5 00 00 00 00 	mov    $0x0,%r13
    15b2:	49 c7 c6 00 00 00 00 	mov    $0x0,%r14
    15b9:	49 c7 c7 00 00 00 00 	mov    $0x0,%r15
    15c0:	eb 2c                	jmp    15ee <main+0x2e5>
    15c2:	8b 05 98 4a 00 00    	mov    0x4a98(%rip),%eax        # 6060 <gs>
    15c8:	6b c0 78             	imul   $0x78,%eax,%eax
    15cb:	89 c2                	mov    %eax,%edx
    15cd:	48 8b 85 38 ff ff ff 	mov    -0xc8(%rbp),%rax
    15d4:	48 01 d0             	add    %rdx,%rax
    15d7:	48 89 85 58 ff ff ff 	mov    %rax,-0xa8(%rbp)
    15de:	48 8b 85 58 ff ff ff 	mov    -0xa8(%rbp),%rax
    15e5:	ff d0                	call   *%rax
    15e7:	48 89 85 38 ff ff ff 	mov    %rax,-0xc8(%rbp)
    15ee:	48 83 bd 38 ff ff ff 	cmpq   $0x0,-0xc8(%rbp)
    15f5:	00 
    15f6:	75 ca                	jne    15c2 <main+0x2b9>
    15f8:	c7 85 2c ff ff ff 00 	movl   $0x0,-0xd4(%rbp)
    15ff:	00 00 00 
    1602:	eb 26                	jmp    162a <main+0x321>
    1604:	48 8b 15 61 4a 00 00 	mov    0x4a61(%rip),%rdx        # 606c <gs+0xc>
    160b:	8b 85 2c ff ff ff    	mov    -0xd4(%rbp),%eax
    1611:	48 c1 e0 03          	shl    $0x3,%rax
    1615:	48 01 d0             	add    %rdx,%rax
    1618:	48 8b 00             	mov    (%rax),%rax
    161b:	48 89 c7             	mov    %rax,%rdi
    161e:	e8 0d fb ff ff       	call   1130 <free@plt>
    1623:	83 85 2c ff ff ff 01 	addl   $0x1,-0xd4(%rbp)
    162a:	8b 05 4c 4a 00 00    	mov    0x4a4c(%rip),%eax        # 607c <gs+0x1c>
    1630:	39 85 2c ff ff ff    	cmp    %eax,-0xd4(%rbp)
    1636:	72 cc                	jb     1604 <main+0x2fb>
    1638:	48 8b 05 2d 4a 00 00 	mov    0x4a2d(%rip),%rax        # 606c <gs+0xc>
    163f:	48 89 c7             	mov    %rax,%rdi
    1642:	e8 e9 fa ff ff       	call   1130 <free@plt>
    1647:	48 8b 05 26 4a 00 00 	mov    0x4a26(%rip),%rax        # 6074 <gs+0x14>
    164e:	48 89 c7             	mov    %rax,%rdi
    1651:	e8 da fa ff ff       	call   1130 <free@plt>
    1656:	48 8b 05 27 4a 00 00 	mov    0x4a27(%rip),%rax        # 6084 <gs+0x24>
    165d:	48 89 c7             	mov    %rax,%rdi
    1660:	e8 cb fa ff ff       	call   1130 <free@plt>
    1665:	48 8b 85 40 ff ff ff 	mov    -0xc0(%rbp),%rax
    166c:	48 89 c7             	mov    %rax,%rdi
    166f:	e8 cc fa ff ff       	call   1140 <fclose@plt>
    1674:	b8 00 00 00 00       	mov    $0x0,%eax
    1679:	48 8b 55 f8          	mov    -0x8(%rbp),%rdx
    167d:	64 48 2b 14 25 28 00 	sub    %fs:0x28,%rdx
    1684:	00 00 
    1686:	74 05                	je     168d <main+0x384>
    1688:	e8 c3 fa ff ff       	call   1150 <__stack_chk_fail@plt>
    168d:	c9                   	leave  
    168e:	c3                   	ret    

000000000000168f <initialize_zero_segment>:
    168f:	f3 0f 1e fa          	endbr64 
    1693:	55                   	push   %rbp
    1694:	48 89 e5             	mov    %rsp,%rbp
    1697:	48 83 ec 20          	sub    $0x20,%rsp
    169b:	48 89 7d e8          	mov    %rdi,-0x18(%rbp)
    169f:	48 8b 45 e8          	mov    -0x18(%rbp),%rax
    16a3:	41 b9 00 00 00 00    	mov    $0x0,%r9d
    16a9:	41 b8 ff ff ff ff    	mov    $0xffffffff,%r8d
    16af:	b9 22 00 00 00       	mov    $0x22,%ecx
    16b4:	ba 07 00 00 00       	mov    $0x7,%edx
    16b9:	48 89 c6             	mov    %rax,%rsi
    16bc:	bf 00 00 00 00       	mov    $0x0,%edi
    16c1:	e8 9a fa ff ff       	call   1160 <mmap@plt>
    16c6:	48 89 45 f8          	mov    %rax,-0x8(%rbp)
    16ca:	48 83 7d f8 ff       	cmpq   $0xffffffffffffffff,-0x8(%rbp)
    16cf:	75 28                	jne    16f9 <initialize_zero_segment+0x6a>
    16d1:	48 8d 05 a8 29 00 00 	lea    0x29a8(%rip),%rax        # 4080 <__PRETTY_FUNCTION__.0>
    16d8:	48 89 c1             	mov    %rax,%rcx
    16db:	ba 80 00 00 00       	mov    $0x80,%edx
    16e0:	48 8d 05 66 29 00 00 	lea    0x2966(%rip),%rax        # 404d <_IO_stdin_used+0x4d>
    16e7:	48 89 c6             	mov    %rax,%rsi
    16ea:	48 8d 05 73 29 00 00 	lea    0x2973(%rip),%rax        # 4064 <_IO_stdin_used+0x64>
    16f1:	48 89 c7             	mov    %rax,%rdi
    16f4:	e8 87 fa ff ff       	call   1180 <__assert_fail@plt>
    16f9:	48 8b 55 e8          	mov    -0x18(%rbp),%rdx
    16fd:	48 8b 45 f8          	mov    -0x8(%rbp),%rax
    1701:	be 00 00 00 00       	mov    $0x0,%esi
    1706:	48 89 c7             	mov    %rax,%rdi
    1709:	e8 82 fa ff ff       	call   1190 <memset@plt>
    170e:	48 8b 45 f8          	mov    -0x8(%rbp),%rax
    1712:	c9                   	leave  
    1713:	c3                   	ret    

0000000000001714 <load_zero_segment>:
    1714:	f3 0f 1e fa          	endbr64 
    1718:	55                   	push   %rbp
    1719:	48 89 e5             	mov    %rsp,%rbp
    171c:	48 83 ec 40          	sub    $0x40,%rsp
    1720:	48 89 7d d8          	mov    %rdi,-0x28(%rbp)
    1724:	48 89 75 d0          	mov    %rsi,-0x30(%rbp)
    1728:	48 89 55 c8          	mov    %rdx,-0x38(%rbp)
    172c:	48 89 4d c0          	mov    %rcx,-0x40(%rbp)
    1730:	c7 45 ec 00 00 00 00 	movl   $0x0,-0x14(%rbp)
    1737:	c7 45 f4 00 00 00 00 	movl   $0x0,-0xc(%rbp)
    173e:	48 c7 45 f8 00 00 00 	movq   $0x0,-0x8(%rbp)
    1745:	00 
    1746:	48 8b 45 c8          	mov    -0x38(%rbp),%rax
    174a:	48 89 c7             	mov    %rax,%rdi
    174d:	e8 be fa ff ff       	call   1210 <getc@plt>
    1752:	89 45 f0             	mov    %eax,-0x10(%rbp)
    1755:	e9 28 01 00 00       	jmp    1882 <load_zero_segment+0x16e>
    175a:	8b 45 f0             	mov    -0x10(%rbp),%eax
    175d:	88 45 eb             	mov    %al,-0x15(%rbp)
    1760:	8b 45 f4             	mov    -0xc(%rbp),%eax
    1763:	83 e0 03             	and    $0x3,%eax
    1766:	85 c0                	test   %eax,%eax
    1768:	75 24                	jne    178e <load_zero_segment+0x7a>
    176a:	0f b6 55 eb          	movzbl -0x15(%rbp),%edx
    176e:	8b 45 ec             	mov    -0x14(%rbp),%eax
    1771:	48 89 d1             	mov    %rdx,%rcx
    1774:	ba 18 00 00 00       	mov    $0x18,%edx
    1779:	be 08 00 00 00       	mov    $0x8,%esi
    177e:	48 89 c7             	mov    %rax,%rdi
    1781:	e8 0a 01 00 00       	call   1890 <assemble_word>
    1786:	89 45 ec             	mov    %eax,-0x14(%rbp)
    1789:	e9 e1 00 00 00       	jmp    186f <load_zero_segment+0x15b>
    178e:	8b 45 f4             	mov    -0xc(%rbp),%eax
    1791:	99                   	cltd   
    1792:	c1 ea 1e             	shr    $0x1e,%edx
    1795:	01 d0                	add    %edx,%eax
    1797:	83 e0 03             	and    $0x3,%eax
    179a:	29 d0                	sub    %edx,%eax
    179c:	83 f8 01             	cmp    $0x1,%eax
    179f:	75 24                	jne    17c5 <load_zero_segment+0xb1>
    17a1:	0f b6 55 eb          	movzbl -0x15(%rbp),%edx
    17a5:	8b 45 ec             	mov    -0x14(%rbp),%eax
    17a8:	48 89 d1             	mov    %rdx,%rcx
    17ab:	ba 10 00 00 00       	mov    $0x10,%edx
    17b0:	be 08 00 00 00       	mov    $0x8,%esi
    17b5:	48 89 c7             	mov    %rax,%rdi
    17b8:	e8 d3 00 00 00       	call   1890 <assemble_word>
    17bd:	89 45 ec             	mov    %eax,-0x14(%rbp)
    17c0:	e9 aa 00 00 00       	jmp    186f <load_zero_segment+0x15b>
    17c5:	8b 45 f4             	mov    -0xc(%rbp),%eax
    17c8:	99                   	cltd   
    17c9:	c1 ea 1e             	shr    $0x1e,%edx
    17cc:	01 d0                	add    %edx,%eax
    17ce:	83 e0 03             	and    $0x3,%eax
    17d1:	29 d0                	sub    %edx,%eax
    17d3:	83 f8 02             	cmp    $0x2,%eax
    17d6:	75 21                	jne    17f9 <load_zero_segment+0xe5>
    17d8:	0f b6 55 eb          	movzbl -0x15(%rbp),%edx
    17dc:	8b 45 ec             	mov    -0x14(%rbp),%eax
    17df:	48 89 d1             	mov    %rdx,%rcx
    17e2:	ba 08 00 00 00       	mov    $0x8,%edx
    17e7:	be 08 00 00 00       	mov    $0x8,%esi
    17ec:	48 89 c7             	mov    %rax,%rdi
    17ef:	e8 9c 00 00 00       	call   1890 <assemble_word>
    17f4:	89 45 ec             	mov    %eax,-0x14(%rbp)
    17f7:	eb 76                	jmp    186f <load_zero_segment+0x15b>
    17f9:	8b 45 f4             	mov    -0xc(%rbp),%eax
    17fc:	99                   	cltd   
    17fd:	c1 ea 1e             	shr    $0x1e,%edx
    1800:	01 d0                	add    %edx,%eax
    1802:	83 e0 03             	and    $0x3,%eax
    1805:	29 d0                	sub    %edx,%eax
    1807:	83 f8 03             	cmp    $0x3,%eax
    180a:	75 63                	jne    186f <load_zero_segment+0x15b>
    180c:	0f b6 55 eb          	movzbl -0x15(%rbp),%edx
    1810:	8b 45 ec             	mov    -0x14(%rbp),%eax
    1813:	48 89 d1             	mov    %rdx,%rcx
    1816:	ba 00 00 00 00       	mov    $0x0,%edx
    181b:	be 08 00 00 00       	mov    $0x8,%esi
    1820:	48 89 c7             	mov    %rax,%rdi
    1823:	e8 68 00 00 00       	call   1890 <assemble_word>
    1828:	89 45 ec             	mov    %eax,-0x14(%rbp)
    182b:	8b 45 f4             	mov    -0xc(%rbp),%eax
    182e:	8d 50 03             	lea    0x3(%rax),%edx
    1831:	85 c0                	test   %eax,%eax
    1833:	0f 48 c2             	cmovs  %edx,%eax
    1836:	c1 f8 02             	sar    $0x2,%eax
    1839:	48 98                	cltq   
    183b:	48 8d 14 85 00 00 00 	lea    0x0(,%rax,4),%rdx
    1842:	00 
    1843:	48 8b 45 d0          	mov    -0x30(%rbp),%rax
    1847:	48 01 c2             	add    %rax,%rdx
    184a:	8b 45 ec             	mov    -0x14(%rbp),%eax
    184d:	89 02                	mov    %eax,(%rdx)
    184f:	48 8b 55 f8          	mov    -0x8(%rbp),%rdx
    1853:	8b 4d ec             	mov    -0x14(%rbp),%ecx
    1856:	48 8b 45 d8          	mov    -0x28(%rbp),%rax
    185a:	89 ce                	mov    %ecx,%esi
    185c:	48 89 c7             	mov    %rax,%rdi
    185f:	e8 b7 06 00 00       	call   1f1b <compile_instruction>
    1864:	48 89 45 f8          	mov    %rax,-0x8(%rbp)
    1868:	c7 45 ec 00 00 00 00 	movl   $0x0,-0x14(%rbp)
    186f:	83 45 f4 01          	addl   $0x1,-0xc(%rbp)
    1873:	48 8b 45 c8          	mov    -0x38(%rbp),%rax
    1877:	48 89 c7             	mov    %rax,%rdi
    187a:	e8 91 f9 ff ff       	call   1210 <getc@plt>
    187f:	89 45 f0             	mov    %eax,-0x10(%rbp)
    1882:	83 7d f0 ff          	cmpl   $0xffffffff,-0x10(%rbp)
    1886:	0f 85 ce fe ff ff    	jne    175a <load_zero_segment+0x46>
    188c:	90                   	nop
    188d:	90                   	nop
    188e:	c9                   	leave  
    188f:	c3                   	ret    

0000000000001890 <assemble_word>:
    1890:	f3 0f 1e fa          	endbr64 
    1894:	55                   	push   %rbp
    1895:	48 89 e5             	mov    %rsp,%rbp
    1898:	48 89 7d d8          	mov    %rdi,-0x28(%rbp)
    189c:	89 75 d4             	mov    %esi,-0x2c(%rbp)
    189f:	89 55 d0             	mov    %edx,-0x30(%rbp)
    18a2:	48 89 4d c8          	mov    %rcx,-0x38(%rbp)
    18a6:	8b 45 d4             	mov    -0x2c(%rbp),%eax
    18a9:	83 e8 01             	sub    $0x1,%eax
    18ac:	ba 01 00 00 00       	mov    $0x1,%edx
    18b1:	89 c1                	mov    %eax,%ecx
    18b3:	48 d3 e2             	shl    %cl,%rdx
    18b6:	48 89 d0             	mov    %rdx,%rax
    18b9:	48 89 45 e8          	mov    %rax,-0x18(%rbp)
    18bd:	48 d1 65 e8          	shlq   -0x18(%rbp)
    18c1:	48 83 6d e8 01       	subq   $0x1,-0x18(%rbp)
    18c6:	8b 45 d0             	mov    -0x30(%rbp),%eax
    18c9:	89 c1                	mov    %eax,%ecx
    18cb:	48 d3 65 e8          	shlq   %cl,-0x18(%rbp)
    18cf:	48 f7 55 e8          	notq   -0x18(%rbp)
    18d3:	48 8b 45 d8          	mov    -0x28(%rbp),%rax
    18d7:	48 23 45 e8          	and    -0x18(%rbp),%rax
    18db:	48 89 45 f0          	mov    %rax,-0x10(%rbp)
    18df:	8b 45 d0             	mov    -0x30(%rbp),%eax
    18e2:	89 c1                	mov    %eax,%ecx
    18e4:	48 d3 65 c8          	shlq   %cl,-0x38(%rbp)
    18e8:	48 8b 45 f0          	mov    -0x10(%rbp),%rax
    18ec:	48 0b 45 c8          	or     -0x38(%rbp),%rax
    18f0:	48 89 45 f8          	mov    %rax,-0x8(%rbp)
    18f4:	48 8b 45 f8          	mov    -0x8(%rbp),%rax
    18f8:	5d                   	pop    %rbp
    18f9:	c3                   	ret    

00000000000018fa <read_char>:
    18fa:	f3 0f 1e fa          	endbr64 
    18fe:	55                   	push   %rbp
    18ff:	48 89 e5             	mov    %rsp,%rbp
    1902:	48 83 ec 10          	sub    $0x10,%rsp
    1906:	48 8b 05 13 47 00 00 	mov    0x4713(%rip),%rax        # 6020 <stdin@GLIBC_2.2.5>
    190d:	48 89 c7             	mov    %rax,%rdi
    1910:	e8 fb f8 ff ff       	call   1210 <getc@plt>
    1915:	89 45 fc             	mov    %eax,-0x4(%rbp)
    1918:	8b 45 fc             	mov    -0x4(%rbp),%eax
    191b:	88 45 fb             	mov    %al,-0x5(%rbp)
    191e:	0f b6 45 fb          	movzbl -0x5(%rbp),%eax
    1922:	c9                   	leave  
    1923:	c3                   	ret    

0000000000001924 <print_registers>:
    1924:	f3 0f 1e fa          	endbr64 
    1928:	55                   	push   %rbp
    1929:	48 89 e5             	mov    %rsp,%rbp
    192c:	48 83 ec 50          	sub    $0x50,%rsp
    1930:	64 48 8b 04 25 28 00 	mov    %fs:0x28,%rax
    1937:	00 00 
    1939:	48 89 45 f8          	mov    %rax,-0x8(%rbp)
    193d:	31 c0                	xor    %eax,%eax
    193f:	4c 89 45 b8          	mov    %r8,-0x48(%rbp)
    1943:	4c 89 4d c0          	mov    %r9,-0x40(%rbp)
    1947:	4c 89 55 c8          	mov    %r10,-0x38(%rbp)
    194b:	4c 89 5d d0          	mov    %r11,-0x30(%rbp)
    194f:	4c 89 65 d8          	mov    %r12,-0x28(%rbp)
    1953:	4c 89 6d e0          	mov    %r13,-0x20(%rbp)
    1957:	4c 89 75 e8          	mov    %r14,-0x18(%rbp)
    195b:	4c 89 7d f0          	mov    %r15,-0x10(%rbp)
    195f:	4c 8b 45 f0          	mov    -0x10(%rbp),%r8
    1963:	48 8b 7d e8          	mov    -0x18(%rbp),%rdi
    1967:	48 8b 75 e0          	mov    -0x20(%rbp),%rsi
    196b:	4c 8b 4d d8          	mov    -0x28(%rbp),%r9
    196f:	4c 8b 55 d0          	mov    -0x30(%rbp),%r10
    1973:	48 8b 4d c8          	mov    -0x38(%rbp),%rcx
    1977:	48 8b 55 c0          	mov    -0x40(%rbp),%rdx
    197b:	48 8b 45 b8          	mov    -0x48(%rbp),%rax
    197f:	48 83 ec 08          	sub    $0x8,%rsp
    1983:	41 50                	push   %r8
    1985:	57                   	push   %rdi
    1986:	56                   	push   %rsi
    1987:	4d 89 d0             	mov    %r10,%r8
    198a:	48 89 c6             	mov    %rax,%rsi
    198d:	48 8d 05 04 27 00 00 	lea    0x2704(%rip),%rax        # 4098 <__PRETTY_FUNCTION__.0+0x18>
    1994:	48 89 c7             	mov    %rax,%rdi
    1997:	b8 00 00 00 00       	mov    $0x0,%eax
    199c:	e8 cf f7 ff ff       	call   1170 <printf@plt>
    19a1:	48 83 c4 20          	add    $0x20,%rsp
    19a5:	90                   	nop
    19a6:	48 8b 45 f8          	mov    -0x8(%rbp),%rax
    19aa:	64 48 2b 04 25 28 00 	sub    %fs:0x28,%rax
    19b1:	00 00 
    19b3:	74 05                	je     19ba <print_registers+0x96>
    19b5:	e8 96 f7 ff ff       	call   1150 <__stack_chk_fail@plt>
    19ba:	c9                   	leave  
    19bb:	c3                   	ret    

00000000000019bc <map_segment>:
    19bc:	f3 0f 1e fa          	endbr64 
    19c0:	55                   	push   %rbp
    19c1:	48 89 e5             	mov    %rsp,%rbp
    19c4:	53                   	push   %rbx
    19c5:	48 83 ec 28          	sub    $0x28,%rsp
    19c9:	89 7d dc             	mov    %edi,-0x24(%rbp)
    19cc:	8b 05 ba 46 00 00    	mov    0x46ba(%rip),%eax        # 608c <gs+0x2c>
    19d2:	85 c0                	test   %eax,%eax
    19d4:	0f 85 39 01 00 00    	jne    1b13 <map_segment+0x157>
    19da:	8b 15 9c 46 00 00    	mov    0x469c(%rip),%edx        # 607c <gs+0x1c>
    19e0:	8b 05 9a 46 00 00    	mov    0x469a(%rip),%eax        # 6080 <gs+0x20>
    19e6:	39 c2                	cmp    %eax,%edx
    19e8:	0f 85 11 01 00 00    	jne    1aff <map_segment+0x143>
    19ee:	8b 05 8c 46 00 00    	mov    0x468c(%rip),%eax        # 6080 <gs+0x20>
    19f4:	01 c0                	add    %eax,%eax
    19f6:	89 05 84 46 00 00    	mov    %eax,0x4684(%rip)        # 6080 <gs+0x20>
    19fc:	8b 05 7e 46 00 00    	mov    0x467e(%rip),%eax        # 6080 <gs+0x20>
    1a02:	89 c0                	mov    %eax,%eax
    1a04:	48 8d 14 85 00 00 00 	lea    0x0(,%rax,4),%rdx
    1a0b:	00 
    1a0c:	48 8b 05 61 46 00 00 	mov    0x4661(%rip),%rax        # 6074 <gs+0x14>
    1a13:	48 89 d6             	mov    %rdx,%rsi
    1a16:	48 89 c7             	mov    %rax,%rdi
    1a19:	e8 c2 f7 ff ff       	call   11e0 <realloc@plt>
    1a1e:	48 89 05 4f 46 00 00 	mov    %rax,0x464f(%rip)        # 6074 <gs+0x14>
    1a25:	48 8b 05 48 46 00 00 	mov    0x4648(%rip),%rax        # 6074 <gs+0x14>
    1a2c:	48 85 c0             	test   %rax,%rax
    1a2f:	75 28                	jne    1a59 <map_segment+0x9d>
    1a31:	48 8d 05 58 27 00 00 	lea    0x2758(%rip),%rax        # 4190 <__PRETTY_FUNCTION__.1>
    1a38:	48 89 c1             	mov    %rax,%rcx
    1a3b:	ba 35 00 00 00       	mov    $0x35,%edx
    1a40:	48 8d 05 98 26 00 00 	lea    0x2698(%rip),%rax        # 40df <__PRETTY_FUNCTION__.0+0x5f>
    1a47:	48 89 c6             	mov    %rax,%rsi
    1a4a:	48 8d 05 99 26 00 00 	lea    0x2699(%rip),%rax        # 40ea <__PRETTY_FUNCTION__.0+0x6a>
    1a51:	48 89 c7             	mov    %rax,%rdi
    1a54:	e8 27 f7 ff ff       	call   1180 <__assert_fail@plt>
    1a59:	8b 05 21 46 00 00    	mov    0x4621(%rip),%eax        # 6080 <gs+0x20>
    1a5f:	89 c0                	mov    %eax,%eax
    1a61:	48 8d 14 c5 00 00 00 	lea    0x0(,%rax,8),%rdx
    1a68:	00 
    1a69:	48 8b 05 fc 45 00 00 	mov    0x45fc(%rip),%rax        # 606c <gs+0xc>
    1a70:	48 89 d6             	mov    %rdx,%rsi
    1a73:	48 89 c7             	mov    %rax,%rdi
    1a76:	e8 65 f7 ff ff       	call   11e0 <realloc@plt>
    1a7b:	48 89 05 ea 45 00 00 	mov    %rax,0x45ea(%rip)        # 606c <gs+0xc>
    1a82:	48 8b 05 e3 45 00 00 	mov    0x45e3(%rip),%rax        # 606c <gs+0xc>
    1a89:	48 85 c0             	test   %rax,%rax
    1a8c:	75 28                	jne    1ab6 <map_segment+0xfa>
    1a8e:	48 8d 05 fb 26 00 00 	lea    0x26fb(%rip),%rax        # 4190 <__PRETTY_FUNCTION__.1>
    1a95:	48 89 c1             	mov    %rax,%rcx
    1a98:	ba 39 00 00 00       	mov    $0x39,%edx
    1a9d:	48 8d 05 3b 26 00 00 	lea    0x263b(%rip),%rax        # 40df <__PRETTY_FUNCTION__.0+0x5f>
    1aa4:	48 89 c6             	mov    %rax,%rsi
    1aa7:	48 8d 05 50 26 00 00 	lea    0x2650(%rip),%rax        # 40fe <__PRETTY_FUNCTION__.0+0x7e>
    1aae:	48 89 c7             	mov    %rax,%rdi
    1ab1:	e8 ca f6 ff ff       	call   1180 <__assert_fail@plt>
    1ab6:	8b 05 c0 45 00 00    	mov    0x45c0(%rip),%eax        # 607c <gs+0x1c>
    1abc:	89 45 ec             	mov    %eax,-0x14(%rbp)
    1abf:	eb 33                	jmp    1af4 <map_segment+0x138>
    1ac1:	48 8b 15 a4 45 00 00 	mov    0x45a4(%rip),%rdx        # 606c <gs+0xc>
    1ac8:	8b 45 ec             	mov    -0x14(%rbp),%eax
    1acb:	48 c1 e0 03          	shl    $0x3,%rax
    1acf:	48 01 d0             	add    %rdx,%rax
    1ad2:	48 c7 00 00 00 00 00 	movq   $0x0,(%rax)
    1ad9:	48 8b 15 94 45 00 00 	mov    0x4594(%rip),%rdx        # 6074 <gs+0x14>
    1ae0:	8b 45 ec             	mov    -0x14(%rbp),%eax
    1ae3:	48 c1 e0 02          	shl    $0x2,%rax
    1ae7:	48 01 d0             	add    %rdx,%rax
    1aea:	c7 00 00 00 00 00    	movl   $0x0,(%rax)
    1af0:	83 45 ec 01          	addl   $0x1,-0x14(%rbp)
    1af4:	8b 05 86 45 00 00    	mov    0x4586(%rip),%eax        # 6080 <gs+0x20>
    1afa:	39 45 ec             	cmp    %eax,-0x14(%rbp)
    1afd:	72 c2                	jb     1ac1 <map_segment+0x105>
    1aff:	8b 05 77 45 00 00    	mov    0x4577(%rip),%eax        # 607c <gs+0x1c>
    1b05:	8d 50 01             	lea    0x1(%rax),%edx
    1b08:	89 15 6e 45 00 00    	mov    %edx,0x456e(%rip)        # 607c <gs+0x1c>
    1b0e:	89 45 e8             	mov    %eax,-0x18(%rbp)
    1b11:	eb 2a                	jmp    1b3d <map_segment+0x181>
    1b13:	48 8b 15 6a 45 00 00 	mov    0x456a(%rip),%rdx        # 6084 <gs+0x24>
    1b1a:	8b 05 6c 45 00 00    	mov    0x456c(%rip),%eax        # 608c <gs+0x2c>
    1b20:	83 e8 01             	sub    $0x1,%eax
    1b23:	89 05 63 45 00 00    	mov    %eax,0x4563(%rip)        # 608c <gs+0x2c>
    1b29:	8b 05 5d 45 00 00    	mov    0x455d(%rip),%eax        # 608c <gs+0x2c>
    1b2f:	89 c0                	mov    %eax,%eax
    1b31:	48 c1 e0 02          	shl    $0x2,%rax
    1b35:	48 01 d0             	add    %rdx,%rax
    1b38:	8b 00                	mov    (%rax),%eax
    1b3a:	89 45 e8             	mov    %eax,-0x18(%rbp)
    1b3d:	48 8b 15 28 45 00 00 	mov    0x4528(%rip),%rdx        # 606c <gs+0xc>
    1b44:	8b 45 e8             	mov    -0x18(%rbp),%eax
    1b47:	48 c1 e0 03          	shl    $0x3,%rax
    1b4b:	48 01 d0             	add    %rdx,%rax
    1b4e:	48 8b 00             	mov    (%rax),%rax
    1b51:	48 85 c0             	test   %rax,%rax
    1b54:	74 1c                	je     1b72 <map_segment+0x1b6>
    1b56:	48 8b 15 17 45 00 00 	mov    0x4517(%rip),%rdx        # 6074 <gs+0x14>
    1b5d:	8b 45 e8             	mov    -0x18(%rbp),%eax
    1b60:	48 c1 e0 02          	shl    $0x2,%rax
    1b64:	48 01 d0             	add    %rdx,%rax
    1b67:	8b 00                	mov    (%rax),%eax
    1b69:	39 45 dc             	cmp    %eax,-0x24(%rbp)
    1b6c:	0f 86 96 00 00 00    	jbe    1c08 <map_segment+0x24c>
    1b72:	8b 45 dc             	mov    -0x24(%rbp),%eax
    1b75:	48 8d 14 85 00 00 00 	lea    0x0(,%rax,4),%rdx
    1b7c:	00 
    1b7d:	48 8b 0d e8 44 00 00 	mov    0x44e8(%rip),%rcx        # 606c <gs+0xc>
    1b84:	8b 45 e8             	mov    -0x18(%rbp),%eax
    1b87:	48 c1 e0 03          	shl    $0x3,%rax
    1b8b:	48 01 c8             	add    %rcx,%rax
    1b8e:	48 8b 00             	mov    (%rax),%rax
    1b91:	48 8b 35 d4 44 00 00 	mov    0x44d4(%rip),%rsi        # 606c <gs+0xc>
    1b98:	8b 4d e8             	mov    -0x18(%rbp),%ecx
    1b9b:	48 c1 e1 03          	shl    $0x3,%rcx
    1b9f:	48 8d 1c 0e          	lea    (%rsi,%rcx,1),%rbx
    1ba3:	48 89 d6             	mov    %rdx,%rsi
    1ba6:	48 89 c7             	mov    %rax,%rdi
    1ba9:	e8 32 f6 ff ff       	call   11e0 <realloc@plt>
    1bae:	48 89 03             	mov    %rax,(%rbx)
    1bb1:	48 8b 15 b4 44 00 00 	mov    0x44b4(%rip),%rdx        # 606c <gs+0xc>
    1bb8:	8b 45 e8             	mov    -0x18(%rbp),%eax
    1bbb:	48 c1 e0 03          	shl    $0x3,%rax
    1bbf:	48 01 d0             	add    %rdx,%rax
    1bc2:	48 8b 00             	mov    (%rax),%rax
    1bc5:	48 85 c0             	test   %rax,%rax
    1bc8:	75 28                	jne    1bf2 <map_segment+0x236>
    1bca:	48 8d 05 bf 25 00 00 	lea    0x25bf(%rip),%rax        # 4190 <__PRETTY_FUNCTION__.1>
    1bd1:	48 89 c1             	mov    %rax,%rcx
    1bd4:	ba 50 00 00 00       	mov    $0x50,%edx
    1bd9:	48 8d 05 ff 24 00 00 	lea    0x24ff(%rip),%rax        # 40df <__PRETTY_FUNCTION__.0+0x5f>
    1be0:	48 89 c6             	mov    %rax,%rsi
    1be3:	48 8d 05 2e 25 00 00 	lea    0x252e(%rip),%rax        # 4118 <__PRETTY_FUNCTION__.0+0x98>
    1bea:	48 89 c7             	mov    %rax,%rdi
    1bed:	e8 8e f5 ff ff       	call   1180 <__assert_fail@plt>
    1bf2:	48 8b 15 7b 44 00 00 	mov    0x447b(%rip),%rdx        # 6074 <gs+0x14>
    1bf9:	8b 45 e8             	mov    -0x18(%rbp),%eax
    1bfc:	48 c1 e0 02          	shl    $0x2,%rax
    1c00:	48 01 c2             	add    %rax,%rdx
    1c03:	8b 45 dc             	mov    -0x24(%rbp),%eax
    1c06:	89 02                	mov    %eax,(%rdx)
    1c08:	8b 45 dc             	mov    -0x24(%rbp),%eax
    1c0b:	48 8d 14 85 00 00 00 	lea    0x0(,%rax,4),%rdx
    1c12:	00 
    1c13:	48 8b 0d 52 44 00 00 	mov    0x4452(%rip),%rcx        # 606c <gs+0xc>
    1c1a:	8b 45 e8             	mov    -0x18(%rbp),%eax
    1c1d:	48 c1 e0 03          	shl    $0x3,%rax
    1c21:	48 01 c8             	add    %rcx,%rax
    1c24:	48 8b 00             	mov    (%rax),%rax
    1c27:	be 00 00 00 00       	mov    $0x0,%esi
    1c2c:	48 89 c7             	mov    %rax,%rdi
    1c2f:	e8 5c f5 ff ff       	call   1190 <memset@plt>
    1c34:	8b 45 e8             	mov    -0x18(%rbp),%eax
    1c37:	48 8b 5d f8          	mov    -0x8(%rbp),%rbx
    1c3b:	c9                   	leave  
    1c3c:	c3                   	ret    

0000000000001c3d <unmap_segment>:
    1c3d:	f3 0f 1e fa          	endbr64 
    1c41:	55                   	push   %rbp
    1c42:	48 89 e5             	mov    %rsp,%rbp
    1c45:	48 83 ec 40          	sub    $0x40,%rsp
    1c49:	89 7d cc             	mov    %edi,-0x34(%rbp)
    1c4c:	48 8d 05 0d 44 00 00 	lea    0x440d(%rip),%rax        # 6060 <gs>
    1c53:	48 89 45 e0          	mov    %rax,-0x20(%rbp)
    1c57:	48 8b 45 e0          	mov    -0x20(%rbp),%rax
    1c5b:	48 83 c0 24          	add    $0x24,%rax
    1c5f:	48 89 45 e8          	mov    %rax,-0x18(%rbp)
    1c63:	48 8b 45 e0          	mov    -0x20(%rbp),%rax
    1c67:	48 83 c0 2c          	add    $0x2c,%rax
    1c6b:	48 89 45 f0          	mov    %rax,-0x10(%rbp)
    1c6f:	48 8b 45 e0          	mov    -0x20(%rbp),%rax
    1c73:	48 83 c0 30          	add    $0x30,%rax
    1c77:	48 89 45 f8          	mov    %rax,-0x8(%rbp)
    1c7b:	48 8b 45 f0          	mov    -0x10(%rbp),%rax
    1c7f:	8b 00                	mov    (%rax),%eax
    1c81:	89 45 d0             	mov    %eax,-0x30(%rbp)
    1c84:	48 8b 45 f8          	mov    -0x8(%rbp),%rax
    1c88:	8b 00                	mov    (%rax),%eax
    1c8a:	89 45 d4             	mov    %eax,-0x2c(%rbp)
    1c8d:	48 8b 45 e8          	mov    -0x18(%rbp),%rax
    1c91:	48 8b 00             	mov    (%rax),%rax
    1c94:	48 89 45 d8          	mov    %rax,-0x28(%rbp)
    1c98:	8b 45 d0             	mov    -0x30(%rbp),%eax
    1c9b:	3b 45 d4             	cmp    -0x2c(%rbp),%eax
    1c9e:	75 35                	jne    1cd5 <unmap_segment+0x98>
    1ca0:	d1 65 d4             	shll   -0x2c(%rbp)
    1ca3:	8b 45 d4             	mov    -0x2c(%rbp),%eax
    1ca6:	48 8d 14 85 00 00 00 	lea    0x0(,%rax,4),%rdx
    1cad:	00 
    1cae:	48 8b 45 d8          	mov    -0x28(%rbp),%rax
    1cb2:	48 89 d6             	mov    %rdx,%rsi
    1cb5:	48 89 c7             	mov    %rax,%rdi
    1cb8:	e8 23 f5 ff ff       	call   11e0 <realloc@plt>
    1cbd:	48 89 45 d8          	mov    %rax,-0x28(%rbp)
    1cc1:	48 8b 45 f8          	mov    -0x8(%rbp),%rax
    1cc5:	8b 55 d4             	mov    -0x2c(%rbp),%edx
    1cc8:	89 10                	mov    %edx,(%rax)
    1cca:	48 8b 45 e8          	mov    -0x18(%rbp),%rax
    1cce:	48 8b 55 d8          	mov    -0x28(%rbp),%rdx
    1cd2:	48 89 10             	mov    %rdx,(%rax)
    1cd5:	8b 45 d0             	mov    -0x30(%rbp),%eax
    1cd8:	8d 50 01             	lea    0x1(%rax),%edx
    1cdb:	89 55 d0             	mov    %edx,-0x30(%rbp)
    1cde:	89 c0                	mov    %eax,%eax
    1ce0:	48 8d 14 85 00 00 00 	lea    0x0(,%rax,4),%rdx
    1ce7:	00 
    1ce8:	48 8b 45 d8          	mov    -0x28(%rbp),%rax
    1cec:	48 01 c2             	add    %rax,%rdx
    1cef:	8b 45 cc             	mov    -0x34(%rbp),%eax
    1cf2:	89 02                	mov    %eax,(%rdx)
    1cf4:	48 8b 45 f0          	mov    -0x10(%rbp),%rax
    1cf8:	8b 55 d0             	mov    -0x30(%rbp),%edx
    1cfb:	89 10                	mov    %edx,(%rax)
    1cfd:	90                   	nop
    1cfe:	c9                   	leave  
    1cff:	c3                   	ret    

0000000000001d00 <help_unmap>:
    1d00:	f3 0f 1e fa          	endbr64 
    1d04:	55                   	push   %rbp
    1d05:	48 89 e5             	mov    %rsp,%rbp
    1d08:	48 83 ec 20          	sub    $0x20,%rsp
    1d0c:	48 89 7d e8          	mov    %rdi,-0x18(%rbp)
    1d10:	89 75 e4             	mov    %esi,-0x1c(%rbp)
    1d13:	8b 55 e4             	mov    -0x1c(%rbp),%edx
    1d16:	48 8b 45 e8          	mov    -0x18(%rbp),%rax
    1d1a:	48 89 d6             	mov    %rdx,%rsi
    1d1d:	48 89 c7             	mov    %rax,%rdi
    1d20:	e8 bb f4 ff ff       	call   11e0 <realloc@plt>
    1d25:	48 89 45 f8          	mov    %rax,-0x8(%rbp)
    1d29:	48 83 7d f8 00       	cmpq   $0x0,-0x8(%rbp)
    1d2e:	75 28                	jne    1d58 <help_unmap+0x58>
    1d30:	48 8d 05 69 24 00 00 	lea    0x2469(%rip),%rax        # 41a0 <__PRETTY_FUNCTION__.0>
    1d37:	48 89 c1             	mov    %rax,%rcx
    1d3a:	ba 89 00 00 00       	mov    $0x89,%edx
    1d3f:	48 8d 05 99 23 00 00 	lea    0x2399(%rip),%rax        # 40df <__PRETTY_FUNCTION__.0+0x5f>
    1d46:	48 89 c6             	mov    %rax,%rsi
    1d49:	48 8d 05 e7 23 00 00 	lea    0x23e7(%rip),%rax        # 4137 <__PRETTY_FUNCTION__.0+0xb7>
    1d50:	48 89 c7             	mov    %rax,%rdi
    1d53:	e8 28 f4 ff ff       	call   1180 <__assert_fail@plt>
    1d58:	8b 55 e4             	mov    -0x1c(%rbp),%edx
    1d5b:	48 8b 45 f8          	mov    -0x8(%rbp),%rax
    1d5f:	be 00 00 00 00       	mov    $0x0,%esi
    1d64:	48 89 c7             	mov    %rax,%rdi
    1d67:	e8 24 f4 ff ff       	call   1190 <memset@plt>
    1d6c:	48 8b 45 f8          	mov    -0x8(%rbp),%rax
    1d70:	48 89 05 0d 43 00 00 	mov    %rax,0x430d(%rip)        # 6084 <gs+0x24>
    1d77:	48 8b 45 f8          	mov    -0x8(%rbp),%rax
    1d7b:	c9                   	leave  
    1d7c:	c3                   	ret    

0000000000001d7d <checkpoint>:
    1d7d:	f3 0f 1e fa          	endbr64 
    1d81:	55                   	push   %rbp
    1d82:	48 89 e5             	mov    %rsp,%rbp
    1d85:	48 83 ec 10          	sub    $0x10,%rsp
    1d89:	48 89 7d f8          	mov    %rdi,-0x8(%rbp)
    1d8d:	89 75 f4             	mov    %esi,-0xc(%rbp)
    1d90:	89 55 f0             	mov    %edx,-0x10(%rbp)
    1d93:	8b 45 f0             	mov    -0x10(%rbp),%eax
    1d96:	48 8d 14 85 00 00 00 	lea    0x0(,%rax,4),%rdx
    1d9d:	00 
    1d9e:	48 8b 45 f8          	mov    -0x8(%rbp),%rax
    1da2:	48 01 c2             	add    %rax,%rdx
    1da5:	8b 45 f4             	mov    -0xc(%rbp),%eax
    1da8:	89 02                	mov    %eax,(%rdx)
    1daa:	48 8b 45 f8          	mov    -0x8(%rbp),%rax
    1dae:	48 89 c6             	mov    %rax,%rsi
    1db1:	48 8d 05 8c 23 00 00 	lea    0x238c(%rip),%rax        # 4144 <__PRETTY_FUNCTION__.0+0xc4>
    1db8:	48 89 c7             	mov    %rax,%rdi
    1dbb:	b8 00 00 00 00       	mov    $0x0,%eax
    1dc0:	e8 ab f3 ff ff       	call   1170 <printf@plt>
    1dc5:	8b 45 f4             	mov    -0xc(%rbp),%eax
    1dc8:	89 c6                	mov    %eax,%esi
    1dca:	48 8d 05 8f 23 00 00 	lea    0x238f(%rip),%rax        # 4160 <__PRETTY_FUNCTION__.0+0xe0>
    1dd1:	48 89 c7             	mov    %rax,%rdi
    1dd4:	b8 00 00 00 00       	mov    $0x0,%eax
    1dd9:	e8 92 f3 ff ff       	call   1170 <printf@plt>
    1dde:	8b 45 f0             	mov    -0x10(%rbp),%eax
    1de1:	89 c6                	mov    %eax,%esi
    1de3:	48 8d 05 99 23 00 00 	lea    0x2399(%rip),%rax        # 4183 <__PRETTY_FUNCTION__.0+0x103>
    1dea:	48 89 c7             	mov    %rax,%rdi
    1ded:	b8 00 00 00 00       	mov    $0x0,%eax
    1df2:	e8 79 f3 ff ff       	call   1170 <printf@plt>
    1df7:	90                   	nop
    1df8:	c9                   	leave  
    1df9:	c3                   	ret    

0000000000001dfa <load_program>:
    1dfa:	f3 0f 1e fa          	endbr64 
    1dfe:	55                   	push   %rbp
    1dff:	48 89 e5             	mov    %rsp,%rbp
    1e02:	48 83 ec 30          	sub    $0x30,%rsp
    1e06:	89 7d dc             	mov    %edi,-0x24(%rbp)
    1e09:	89 75 d8             	mov    %esi,-0x28(%rbp)
    1e0c:	48 8b 15 61 42 00 00 	mov    0x4261(%rip),%rdx        # 6074 <gs+0x14>
    1e13:	8b 45 dc             	mov    -0x24(%rbp),%eax
    1e16:	48 c1 e0 02          	shl    $0x2,%rax
    1e1a:	48 01 d0             	add    %rdx,%rax
    1e1d:	8b 00                	mov    (%rax),%eax
    1e1f:	89 45 ec             	mov    %eax,-0x14(%rbp)
    1e22:	8b 45 ec             	mov    -0x14(%rbp),%eax
    1e25:	be 04 00 00 00       	mov    $0x4,%esi
    1e2a:	48 89 c7             	mov    %rax,%rdi
    1e2d:	e8 6e f3 ff ff       	call   11a0 <calloc@plt>
    1e32:	48 89 45 f0          	mov    %rax,-0x10(%rbp)
    1e36:	8b 45 ec             	mov    -0x14(%rbp),%eax
    1e39:	48 8d 14 85 00 00 00 	lea    0x0(,%rax,4),%rdx
    1e40:	00 
    1e41:	48 8b 0d 24 42 00 00 	mov    0x4224(%rip),%rcx        # 606c <gs+0xc>
    1e48:	8b 45 dc             	mov    -0x24(%rbp),%eax
    1e4b:	48 c1 e0 03          	shl    $0x3,%rax
    1e4f:	48 01 c8             	add    %rcx,%rax
    1e52:	48 8b 08             	mov    (%rax),%rcx
    1e55:	48 8b 45 f0          	mov    -0x10(%rbp),%rax
    1e59:	48 89 ce             	mov    %rcx,%rsi
    1e5c:	48 89 c7             	mov    %rax,%rdi
    1e5f:	e8 6c f3 ff ff       	call   11d0 <memcpy@plt>
    1e64:	48 8b 05 01 42 00 00 	mov    0x4201(%rip),%rax        # 606c <gs+0xc>
    1e6b:	48 8b 55 f0          	mov    -0x10(%rbp),%rdx
    1e6f:	48 89 10             	mov    %rdx,(%rax)
    1e72:	48 8b 05 fb 41 00 00 	mov    0x41fb(%rip),%rax        # 6074 <gs+0x14>
    1e79:	8b 55 ec             	mov    -0x14(%rbp),%edx
    1e7c:	89 10                	mov    %edx,(%rax)
    1e7e:	8b 45 ec             	mov    -0x14(%rbp),%eax
    1e81:	6b c0 78             	imul   $0x78,%eax,%eax
    1e84:	89 c0                	mov    %eax,%eax
    1e86:	41 b9 00 00 00 00    	mov    $0x0,%r9d
    1e8c:	41 b8 ff ff ff ff    	mov    $0xffffffff,%r8d
    1e92:	b9 22 00 00 00       	mov    $0x22,%ecx
    1e97:	ba 07 00 00 00       	mov    $0x7,%edx
    1e9c:	48 89 c6             	mov    %rax,%rsi
    1e9f:	bf 00 00 00 00       	mov    $0x0,%edi
    1ea4:	e8 b7 f2 ff ff       	call   1160 <mmap@plt>
    1ea9:	48 89 45 f8          	mov    %rax,-0x8(%rbp)
    1ead:	8b 45 ec             	mov    -0x14(%rbp),%eax
    1eb0:	6b c0 78             	imul   $0x78,%eax,%eax
    1eb3:	89 c2                	mov    %eax,%edx
    1eb5:	48 8b 45 f8          	mov    -0x8(%rbp),%rax
    1eb9:	be 00 00 00 00       	mov    $0x0,%esi
    1ebe:	48 89 c7             	mov    %rax,%rdi
    1ec1:	e8 ca f2 ff ff       	call   1190 <memset@plt>
    1ec6:	c7 45 e4 00 00 00 00 	movl   $0x0,-0x1c(%rbp)
    1ecd:	c7 45 e8 00 00 00 00 	movl   $0x0,-0x18(%rbp)
    1ed4:	eb 2c                	jmp    1f02 <load_program+0x108>
    1ed6:	8b 55 e4             	mov    -0x1c(%rbp),%edx
    1ed9:	8b 45 e8             	mov    -0x18(%rbp),%eax
    1edc:	48 8d 0c 85 00 00 00 	lea    0x0(,%rax,4),%rcx
    1ee3:	00 
    1ee4:	48 8b 45 f0          	mov    -0x10(%rbp),%rax
    1ee8:	48 01 c8             	add    %rcx,%rax
    1eeb:	8b 08                	mov    (%rax),%ecx
    1eed:	48 8b 45 f8          	mov    -0x8(%rbp),%rax
    1ef1:	89 ce                	mov    %ecx,%esi
    1ef3:	48 89 c7             	mov    %rax,%rdi
    1ef6:	e8 20 00 00 00       	call   1f1b <compile_instruction>
    1efb:	89 45 e4             	mov    %eax,-0x1c(%rbp)
    1efe:	83 45 e8 01          	addl   $0x1,-0x18(%rbp)
    1f02:	8b 45 e8             	mov    -0x18(%rbp),%eax
    1f05:	3b 45 ec             	cmp    -0x14(%rbp),%eax
    1f08:	72 cc                	jb     1ed6 <load_program+0xdc>
    1f0a:	48 8b 45 f8          	mov    -0x8(%rbp),%rax
    1f0e:	48 89 05 4f 41 00 00 	mov    %rax,0x414f(%rip)        # 6064 <gs+0x4>
    1f15:	48 8b 45 f8          	mov    -0x8(%rbp),%rax
    1f19:	c9                   	leave  
    1f1a:	c3                   	ret    

0000000000001f1b <compile_instruction>:
    1f1b:	f3 0f 1e fa          	endbr64 
    1f1f:	55                   	push   %rbp
    1f20:	48 89 e5             	mov    %rsp,%rbp
    1f23:	48 83 ec 40          	sub    $0x40,%rsp
    1f27:	48 89 7d d8          	mov    %rdi,-0x28(%rbp)
    1f2b:	89 75 d4             	mov    %esi,-0x2c(%rbp)
    1f2e:	48 89 55 c8          	mov    %rdx,-0x38(%rbp)
    1f32:	8b 45 d4             	mov    -0x2c(%rbp),%eax
    1f35:	c1 e8 1c             	shr    $0x1c,%eax
    1f38:	89 45 ec             	mov    %eax,-0x14(%rbp)
    1f3b:	c7 45 f0 00 00 00 00 	movl   $0x0,-0x10(%rbp)
    1f42:	83 7d ec 0d          	cmpl   $0xd,-0x14(%rbp)
    1f46:	75 3a                	jne    1f82 <compile_instruction+0x67>
    1f48:	8b 45 d4             	mov    -0x2c(%rbp),%eax
    1f4b:	c1 e8 19             	shr    $0x19,%eax
    1f4e:	83 e0 07             	and    $0x7,%eax
    1f51:	89 45 f0             	mov    %eax,-0x10(%rbp)
    1f54:	8b 45 d4             	mov    -0x2c(%rbp),%eax
    1f57:	25 ff ff ff 01       	and    $0x1ffffff,%eax
    1f5c:	89 45 fc             	mov    %eax,-0x4(%rbp)
    1f5f:	8b 4d fc             	mov    -0x4(%rbp),%ecx
    1f62:	8b 55 f0             	mov    -0x10(%rbp),%edx
    1f65:	48 8b 75 c8          	mov    -0x38(%rbp),%rsi
    1f69:	48 8b 45 d8          	mov    -0x28(%rbp),%rax
    1f6d:	48 89 c7             	mov    %rax,%rdi
    1f70:	e8 6e 02 00 00       	call   21e3 <load_reg>
    1f75:	48 01 45 c8          	add    %rax,-0x38(%rbp)
    1f79:	48 8b 45 c8          	mov    -0x38(%rbp),%rax
    1f7d:	e9 5f 02 00 00       	jmp    21e1 <compile_instruction+0x2c6>
    1f82:	c7 45 f4 00 00 00 00 	movl   $0x0,-0xc(%rbp)
    1f89:	c7 45 f8 00 00 00 00 	movl   $0x0,-0x8(%rbp)
    1f90:	8b 45 d4             	mov    -0x2c(%rbp),%eax
    1f93:	83 e0 07             	and    $0x7,%eax
    1f96:	89 45 f8             	mov    %eax,-0x8(%rbp)
    1f99:	8b 45 d4             	mov    -0x2c(%rbp),%eax
    1f9c:	c1 e8 03             	shr    $0x3,%eax
    1f9f:	83 e0 07             	and    $0x7,%eax
    1fa2:	89 45 f4             	mov    %eax,-0xc(%rbp)
    1fa5:	8b 45 d4             	mov    -0x2c(%rbp),%eax
    1fa8:	c1 e8 06             	shr    $0x6,%eax
    1fab:	83 e0 07             	and    $0x7,%eax
    1fae:	89 45 f0             	mov    %eax,-0x10(%rbp)
    1fb1:	83 7d ec 0a          	cmpl   $0xa,-0x14(%rbp)
    1fb5:	75 1f                	jne    1fd6 <compile_instruction+0xbb>
    1fb7:	8b 55 f8             	mov    -0x8(%rbp),%edx
    1fba:	48 8b 4d c8          	mov    -0x38(%rbp),%rcx
    1fbe:	48 8b 45 d8          	mov    -0x28(%rbp),%rax
    1fc2:	48 89 ce             	mov    %rcx,%rsi
    1fc5:	48 89 c7             	mov    %rax,%rdi
    1fc8:	e8 e8 08 00 00       	call   28b5 <print_reg>
    1fcd:	48 01 45 c8          	add    %rax,-0x38(%rbp)
    1fd1:	e9 07 02 00 00       	jmp    21dd <compile_instruction+0x2c2>
    1fd6:	83 7d ec 03          	cmpl   $0x3,-0x14(%rbp)
    1fda:	75 25                	jne    2001 <compile_instruction+0xe6>
    1fdc:	8b 7d f8             	mov    -0x8(%rbp),%edi
    1fdf:	8b 4d f4             	mov    -0xc(%rbp),%ecx
    1fe2:	8b 55 f0             	mov    -0x10(%rbp),%edx
    1fe5:	48 8b 75 c8          	mov    -0x38(%rbp),%rsi
    1fe9:	48 8b 45 d8          	mov    -0x28(%rbp),%rax
    1fed:	41 89 f8             	mov    %edi,%r8d
    1ff0:	48 89 c7             	mov    %rax,%rdi
    1ff3:	e8 d6 02 00 00       	call   22ce <add_regs>
    1ff8:	48 01 45 c8          	add    %rax,-0x38(%rbp)
    1ffc:	e9 dc 01 00 00       	jmp    21dd <compile_instruction+0x2c2>
    2001:	83 7d ec 07          	cmpl   $0x7,-0x14(%rbp)
    2005:	75 1c                	jne    2023 <compile_instruction+0x108>
    2007:	48 8b 55 c8          	mov    -0x38(%rbp),%rdx
    200b:	48 8b 45 d8          	mov    -0x28(%rbp),%rax
    200f:	48 89 d6             	mov    %rdx,%rsi
    2012:	48 89 c7             	mov    %rax,%rdi
    2015:	e8 c0 03 00 00       	call   23da <handle_halt>
    201a:	48 01 45 c8          	add    %rax,-0x38(%rbp)
    201e:	e9 ba 01 00 00       	jmp    21dd <compile_instruction+0x2c2>
    2023:	83 7d ec 06          	cmpl   $0x6,-0x14(%rbp)
    2027:	75 25                	jne    204e <compile_instruction+0x133>
    2029:	8b 7d f8             	mov    -0x8(%rbp),%edi
    202c:	8b 4d f4             	mov    -0xc(%rbp),%ecx
    202f:	8b 55 f0             	mov    -0x10(%rbp),%edx
    2032:	48 8b 75 c8          	mov    -0x38(%rbp),%rsi
    2036:	48 8b 45 d8          	mov    -0x28(%rbp),%rax
    203a:	41 89 f8             	mov    %edi,%r8d
    203d:	48 89 c7             	mov    %rax,%rdi
    2040:	e8 37 07 00 00       	call   277c <nand_regs>
    2045:	48 01 45 c8          	add    %rax,-0x38(%rbp)
    2049:	e9 8f 01 00 00       	jmp    21dd <compile_instruction+0x2c2>
    204e:	83 7d ec 03          	cmpl   $0x3,-0x14(%rbp)
    2052:	75 25                	jne    2079 <compile_instruction+0x15e>
    2054:	8b 7d f8             	mov    -0x8(%rbp),%edi
    2057:	8b 4d f4             	mov    -0xc(%rbp),%ecx
    205a:	8b 55 f0             	mov    -0x10(%rbp),%edx
    205d:	48 8b 75 c8          	mov    -0x38(%rbp),%rsi
    2061:	48 8b 45 d8          	mov    -0x28(%rbp),%rax
    2065:	41 89 f8             	mov    %edi,%r8d
    2068:	48 89 c7             	mov    %rax,%rdi
    206b:	e8 5e 02 00 00       	call   22ce <add_regs>
    2070:	48 01 45 c8          	add    %rax,-0x38(%rbp)
    2074:	e9 64 01 00 00       	jmp    21dd <compile_instruction+0x2c2>
    2079:	83 7d ec 04          	cmpl   $0x4,-0x14(%rbp)
    207d:	75 25                	jne    20a4 <compile_instruction+0x189>
    207f:	8b 7d f8             	mov    -0x8(%rbp),%edi
    2082:	8b 4d f4             	mov    -0xc(%rbp),%ecx
    2085:	8b 55 f0             	mov    -0x10(%rbp),%edx
    2088:	48 8b 75 c8          	mov    -0x38(%rbp),%rsi
    208c:	48 8b 45 d8          	mov    -0x28(%rbp),%rax
    2090:	41 89 f8             	mov    %edi,%r8d
    2093:	48 89 c7             	mov    %rax,%rdi
    2096:	e8 a1 03 00 00       	call   243c <mult_regs>
    209b:	48 01 45 c8          	add    %rax,-0x38(%rbp)
    209f:	e9 39 01 00 00       	jmp    21dd <compile_instruction+0x2c2>
    20a4:	83 7d ec 05          	cmpl   $0x5,-0x14(%rbp)
    20a8:	75 25                	jne    20cf <compile_instruction+0x1b4>
    20aa:	8b 7d f8             	mov    -0x8(%rbp),%edi
    20ad:	8b 4d f4             	mov    -0xc(%rbp),%ecx
    20b0:	8b 55 f0             	mov    -0x10(%rbp),%edx
    20b3:	48 8b 75 c8          	mov    -0x38(%rbp),%rsi
    20b7:	48 8b 45 d8          	mov    -0x28(%rbp),%rax
    20bb:	41 89 f8             	mov    %edi,%r8d
    20be:	48 89 c7             	mov    %rax,%rdi
    20c1:	e8 7d 04 00 00       	call   2543 <div_regs>
    20c6:	48 01 45 c8          	add    %rax,-0x38(%rbp)
    20ca:	e9 0e 01 00 00       	jmp    21dd <compile_instruction+0x2c2>
    20cf:	83 7d ec 00          	cmpl   $0x0,-0x14(%rbp)
    20d3:	75 25                	jne    20fa <compile_instruction+0x1df>
    20d5:	8b 7d f8             	mov    -0x8(%rbp),%edi
    20d8:	8b 4d f4             	mov    -0xc(%rbp),%ecx
    20db:	8b 55 f0             	mov    -0x10(%rbp),%edx
    20de:	48 8b 75 c8          	mov    -0x38(%rbp),%rsi
    20e2:	48 8b 45 d8          	mov    -0x28(%rbp),%rax
    20e6:	41 89 f8             	mov    %edi,%r8d
    20e9:	48 89 c7             	mov    %rax,%rdi
    20ec:	e8 86 05 00 00       	call   2677 <cond_move>
    20f1:	48 01 45 c8          	add    %rax,-0x38(%rbp)
    20f5:	e9 e3 00 00 00       	jmp    21dd <compile_instruction+0x2c2>
    20fa:	83 7d ec 0b          	cmpl   $0xb,-0x14(%rbp)
    20fe:	75 1f                	jne    211f <compile_instruction+0x204>
    2100:	8b 55 f8             	mov    -0x8(%rbp),%edx
    2103:	48 8b 4d c8          	mov    -0x38(%rbp),%rcx
    2107:	48 8b 45 d8          	mov    -0x28(%rbp),%rax
    210b:	48 89 ce             	mov    %rcx,%rsi
    210e:	48 89 c7             	mov    %rax,%rdi
    2111:	e8 a1 09 00 00       	call   2ab7 <read_into_reg>
    2116:	48 01 45 c8          	add    %rax,-0x38(%rbp)
    211a:	e9 be 00 00 00       	jmp    21dd <compile_instruction+0x2c2>
    211f:	83 7d ec 01          	cmpl   $0x1,-0x14(%rbp)
    2123:	75 25                	jne    214a <compile_instruction+0x22f>
    2125:	8b 7d f8             	mov    -0x8(%rbp),%edi
    2128:	8b 4d f4             	mov    -0xc(%rbp),%ecx
    212b:	8b 55 f0             	mov    -0x10(%rbp),%edx
    212e:	48 8b 75 c8          	mov    -0x38(%rbp),%rsi
    2132:	48 8b 45 d8          	mov    -0x28(%rbp),%rax
    2136:	41 89 f8             	mov    %edi,%r8d
    2139:	48 89 c7             	mov    %rax,%rdi
    213c:	e8 c0 0e 00 00       	call   3001 <inject_seg_load>
    2141:	48 01 45 c8          	add    %rax,-0x38(%rbp)
    2145:	e9 93 00 00 00       	jmp    21dd <compile_instruction+0x2c2>
    214a:	83 7d ec 02          	cmpl   $0x2,-0x14(%rbp)
    214e:	75 22                	jne    2172 <compile_instruction+0x257>
    2150:	8b 7d f8             	mov    -0x8(%rbp),%edi
    2153:	8b 4d f4             	mov    -0xc(%rbp),%ecx
    2156:	8b 55 f0             	mov    -0x10(%rbp),%edx
    2159:	48 8b 75 c8          	mov    -0x38(%rbp),%rsi
    215d:	48 8b 45 d8          	mov    -0x28(%rbp),%rax
    2161:	41 89 f8             	mov    %edi,%r8d
    2164:	48 89 c7             	mov    %rax,%rdi
    2167:	e8 97 10 00 00       	call   3203 <inject_seg_store>
    216c:	48 01 45 c8          	add    %rax,-0x38(%rbp)
    2170:	eb 6b                	jmp    21dd <compile_instruction+0x2c2>
    2172:	83 7d ec 0c          	cmpl   $0xc,-0x14(%rbp)
    2176:	75 1c                	jne    2194 <compile_instruction+0x279>
    2178:	8b 4d f8             	mov    -0x8(%rbp),%ecx
    217b:	8b 55 f4             	mov    -0xc(%rbp),%edx
    217e:	48 8b 75 c8          	mov    -0x38(%rbp),%rsi
    2182:	48 8b 45 d8          	mov    -0x28(%rbp),%rax
    2186:	48 89 c7             	mov    %rax,%rdi
    2189:	e8 7c 12 00 00       	call   340a <inject_load_program>
    218e:	48 01 45 c8          	add    %rax,-0x38(%rbp)
    2192:	eb 49                	jmp    21dd <compile_instruction+0x2c2>
    2194:	83 7d ec 08          	cmpl   $0x8,-0x14(%rbp)
    2198:	75 1c                	jne    21b6 <compile_instruction+0x29b>
    219a:	8b 4d f8             	mov    -0x8(%rbp),%ecx
    219d:	8b 55 f4             	mov    -0xc(%rbp),%edx
    21a0:	48 8b 75 c8          	mov    -0x38(%rbp),%rsi
    21a4:	48 8b 45 d8          	mov    -0x28(%rbp),%rax
    21a8:	48 89 c7             	mov    %rax,%rdi
    21ab:	e8 14 0a 00 00       	call   2bc4 <inject_map_segment>
    21b0:	48 01 45 c8          	add    %rax,-0x38(%rbp)
    21b4:	eb 27                	jmp    21dd <compile_instruction+0x2c2>
    21b6:	83 7d ec 09          	cmpl   $0x9,-0x14(%rbp)
    21ba:	75 1c                	jne    21d8 <compile_instruction+0x2bd>
    21bc:	8b 55 f8             	mov    -0x8(%rbp),%edx
    21bf:	48 8b 4d c8          	mov    -0x38(%rbp),%rcx
    21c3:	48 8b 45 d8          	mov    -0x28(%rbp),%rax
    21c7:	48 89 ce             	mov    %rcx,%rsi
    21ca:	48 89 c7             	mov    %rax,%rdi
    21cd:	e8 2d 0c 00 00       	call   2dff <inject_unmap_segment>
    21d2:	48 01 45 c8          	add    %rax,-0x38(%rbp)
    21d6:	eb 05                	jmp    21dd <compile_instruction+0x2c2>
    21d8:	48 83 45 c8 78       	addq   $0x78,-0x38(%rbp)
    21dd:	48 8b 45 c8          	mov    -0x38(%rbp),%rax
    21e1:	c9                   	leave  
    21e2:	c3                   	ret    

00000000000021e3 <load_reg>:
    21e3:	f3 0f 1e fa          	endbr64 
    21e7:	55                   	push   %rbp
    21e8:	48 89 e5             	mov    %rsp,%rbp
    21eb:	48 89 7d e8          	mov    %rdi,-0x18(%rbp)
    21ef:	48 89 75 e0          	mov    %rsi,-0x20(%rbp)
    21f3:	89 55 dc             	mov    %edx,-0x24(%rbp)
    21f6:	89 4d d8             	mov    %ecx,-0x28(%rbp)
    21f9:	48 8b 55 e8          	mov    -0x18(%rbp),%rdx
    21fd:	48 8b 45 e0          	mov    -0x20(%rbp),%rax
    2201:	48 01 d0             	add    %rdx,%rax
    2204:	48 89 45 f0          	mov    %rax,-0x10(%rbp)
    2208:	48 8b 45 f0          	mov    -0x10(%rbp),%rax
    220c:	48 89 45 f8          	mov    %rax,-0x8(%rbp)
    2210:	48 8b 45 f0          	mov    -0x10(%rbp),%rax
    2214:	48 8d 50 01          	lea    0x1(%rax),%rdx
    2218:	48 89 55 f0          	mov    %rdx,-0x10(%rbp)
    221c:	c6 00 41             	movb   $0x41,(%rax)
    221f:	48 8b 45 f0          	mov    -0x10(%rbp),%rax
    2223:	48 8d 50 01          	lea    0x1(%rax),%rdx
    2227:	48 89 55 f0          	mov    %rdx,-0x10(%rbp)
    222b:	c6 00 c7             	movb   $0xc7,(%rax)
    222e:	8b 45 dc             	mov    -0x24(%rbp),%eax
    2231:	89 c1                	mov    %eax,%ecx
    2233:	48 8b 45 f0          	mov    -0x10(%rbp),%rax
    2237:	48 8d 50 01          	lea    0x1(%rax),%rdx
    223b:	48 89 55 f0          	mov    %rdx,-0x10(%rbp)
    223f:	83 c9 c0             	or     $0xffffffc0,%ecx
    2242:	89 ca                	mov    %ecx,%edx
    2244:	88 10                	mov    %dl,(%rax)
    2246:	48 8b 45 f0          	mov    -0x10(%rbp),%rax
    224a:	48 8d 50 01          	lea    0x1(%rax),%rdx
    224e:	48 89 55 f0          	mov    %rdx,-0x10(%rbp)
    2252:	8b 55 d8             	mov    -0x28(%rbp),%edx
    2255:	88 10                	mov    %dl,(%rax)
    2257:	8b 45 d8             	mov    -0x28(%rbp),%eax
    225a:	c1 e8 08             	shr    $0x8,%eax
    225d:	89 c1                	mov    %eax,%ecx
    225f:	48 8b 45 f0          	mov    -0x10(%rbp),%rax
    2263:	48 8d 50 01          	lea    0x1(%rax),%rdx
    2267:	48 89 55 f0          	mov    %rdx,-0x10(%rbp)
    226b:	89 ca                	mov    %ecx,%edx
    226d:	88 10                	mov    %dl,(%rax)
    226f:	8b 45 d8             	mov    -0x28(%rbp),%eax
    2272:	c1 e8 10             	shr    $0x10,%eax
    2275:	89 c1                	mov    %eax,%ecx
    2277:	48 8b 45 f0          	mov    -0x10(%rbp),%rax
    227b:	48 8d 50 01          	lea    0x1(%rax),%rdx
    227f:	48 89 55 f0          	mov    %rdx,-0x10(%rbp)
    2283:	89 ca                	mov    %ecx,%edx
    2285:	88 10                	mov    %dl,(%rax)
    2287:	8b 45 d8             	mov    -0x28(%rbp),%eax
    228a:	c1 e8 18             	shr    $0x18,%eax
    228d:	89 c1                	mov    %eax,%ecx
    228f:	48 8b 45 f0          	mov    -0x10(%rbp),%rax
    2293:	48 8d 50 01          	lea    0x1(%rax),%rdx
    2297:	48 89 55 f0          	mov    %rdx,-0x10(%rbp)
    229b:	89 ca                	mov    %ecx,%edx
    229d:	88 10                	mov    %dl,(%rax)
    229f:	48 8b 45 f0          	mov    -0x10(%rbp),%rax
    22a3:	48 8d 50 01          	lea    0x1(%rax),%rdx
    22a7:	48 89 55 f0          	mov    %rdx,-0x10(%rbp)
    22ab:	c6 00 eb             	movb   $0xeb,(%rax)
    22ae:	48 8b 45 f0          	mov    -0x10(%rbp),%rax
    22b2:	48 2b 45 f8          	sub    -0x8(%rbp),%rax
    22b6:	89 c1                	mov    %eax,%ecx
    22b8:	b8 77 00 00 00       	mov    $0x77,%eax
    22bd:	29 c8                	sub    %ecx,%eax
    22bf:	89 c2                	mov    %eax,%edx
    22c1:	48 8b 45 f0          	mov    -0x10(%rbp),%rax
    22c5:	88 10                	mov    %dl,(%rax)
    22c7:	b8 78 00 00 00       	mov    $0x78,%eax
    22cc:	5d                   	pop    %rbp
    22cd:	c3                   	ret    

00000000000022ce <add_regs>:
    22ce:	f3 0f 1e fa          	endbr64 
    22d2:	55                   	push   %rbp
    22d3:	48 89 e5             	mov    %rsp,%rbp
    22d6:	48 89 7d e8          	mov    %rdi,-0x18(%rbp)
    22da:	48 89 75 e0          	mov    %rsi,-0x20(%rbp)
    22de:	89 55 dc             	mov    %edx,-0x24(%rbp)
    22e1:	89 4d d8             	mov    %ecx,-0x28(%rbp)
    22e4:	44 89 45 d4          	mov    %r8d,-0x2c(%rbp)
    22e8:	48 8b 55 e8          	mov    -0x18(%rbp),%rdx
    22ec:	48 8b 45 e0          	mov    -0x20(%rbp),%rax
    22f0:	48 01 d0             	add    %rdx,%rax
    22f3:	48 89 45 f0          	mov    %rax,-0x10(%rbp)
    22f7:	48 8b 45 f0          	mov    -0x10(%rbp),%rax
    22fb:	48 89 45 f8          	mov    %rax,-0x8(%rbp)
    22ff:	48 8b 45 f0          	mov    -0x10(%rbp),%rax
    2303:	48 8d 50 01          	lea    0x1(%rax),%rdx
    2307:	48 89 55 f0          	mov    %rdx,-0x10(%rbp)
    230b:	c6 00 44             	movb   $0x44,(%rax)
    230e:	48 8b 45 f0          	mov    -0x10(%rbp),%rax
    2312:	48 8d 50 01          	lea    0x1(%rax),%rdx
    2316:	48 89 55 f0          	mov    %rdx,-0x10(%rbp)
    231a:	c6 00 89             	movb   $0x89,(%rax)
    231d:	8b 45 d8             	mov    -0x28(%rbp),%eax
    2320:	8d 0c c5 00 00 00 00 	lea    0x0(,%rax,8),%ecx
    2327:	48 8b 45 f0          	mov    -0x10(%rbp),%rax
    232b:	48 8d 50 01          	lea    0x1(%rax),%rdx
    232f:	48 89 55 f0          	mov    %rdx,-0x10(%rbp)
    2333:	83 c9 c0             	or     $0xffffffc0,%ecx
    2336:	89 ca                	mov    %ecx,%edx
    2338:	88 10                	mov    %dl,(%rax)
    233a:	48 8b 45 f0          	mov    -0x10(%rbp),%rax
    233e:	48 8d 50 01          	lea    0x1(%rax),%rdx
    2342:	48 89 55 f0          	mov    %rdx,-0x10(%rbp)
    2346:	c6 00 44             	movb   $0x44,(%rax)
    2349:	48 8b 45 f0          	mov    -0x10(%rbp),%rax
    234d:	48 8d 50 01          	lea    0x1(%rax),%rdx
    2351:	48 89 55 f0          	mov    %rdx,-0x10(%rbp)
    2355:	c6 00 01             	movb   $0x1,(%rax)
    2358:	8b 45 d4             	mov    -0x2c(%rbp),%eax
    235b:	8d 0c c5 00 00 00 00 	lea    0x0(,%rax,8),%ecx
    2362:	48 8b 45 f0          	mov    -0x10(%rbp),%rax
    2366:	48 8d 50 01          	lea    0x1(%rax),%rdx
    236a:	48 89 55 f0          	mov    %rdx,-0x10(%rbp)
    236e:	83 c9 c0             	or     $0xffffffc0,%ecx
    2371:	89 ca                	mov    %ecx,%edx
    2373:	88 10                	mov    %dl,(%rax)
    2375:	48 8b 45 f0          	mov    -0x10(%rbp),%rax
    2379:	48 8d 50 01          	lea    0x1(%rax),%rdx
    237d:	48 89 55 f0          	mov    %rdx,-0x10(%rbp)
    2381:	c6 00 41             	movb   $0x41,(%rax)
    2384:	48 8b 45 f0          	mov    -0x10(%rbp),%rax
    2388:	48 8d 50 01          	lea    0x1(%rax),%rdx
    238c:	48 89 55 f0          	mov    %rdx,-0x10(%rbp)
    2390:	c6 00 89             	movb   $0x89,(%rax)
    2393:	8b 45 dc             	mov    -0x24(%rbp),%eax
    2396:	89 c1                	mov    %eax,%ecx
    2398:	48 8b 45 f0          	mov    -0x10(%rbp),%rax
    239c:	48 8d 50 01          	lea    0x1(%rax),%rdx
    23a0:	48 89 55 f0          	mov    %rdx,-0x10(%rbp)
    23a4:	83 c9 c0             	or     $0xffffffc0,%ecx
    23a7:	89 ca                	mov    %ecx,%edx
    23a9:	88 10                	mov    %dl,(%rax)
    23ab:	48 8b 45 f0          	mov    -0x10(%rbp),%rax
    23af:	48 8d 50 01          	lea    0x1(%rax),%rdx
    23b3:	48 89 55 f0          	mov    %rdx,-0x10(%rbp)
    23b7:	c6 00 eb             	movb   $0xeb,(%rax)
    23ba:	48 8b 45 f0          	mov    -0x10(%rbp),%rax
    23be:	48 2b 45 f8          	sub    -0x8(%rbp),%rax
    23c2:	89 c1                	mov    %eax,%ecx
    23c4:	b8 77 00 00 00       	mov    $0x77,%eax
    23c9:	29 c8                	sub    %ecx,%eax
    23cb:	89 c2                	mov    %eax,%edx
    23cd:	48 8b 45 f0          	mov    -0x10(%rbp),%rax
    23d1:	88 10                	mov    %dl,(%rax)
    23d3:	b8 78 00 00 00       	mov    $0x78,%eax
    23d8:	5d                   	pop    %rbp
    23d9:	c3                   	ret    

00000000000023da <handle_halt>:
    23da:	f3 0f 1e fa          	endbr64 
    23de:	55                   	push   %rbp
    23df:	48 89 e5             	mov    %rsp,%rbp
    23e2:	48 89 7d e8          	mov    %rdi,-0x18(%rbp)
    23e6:	48 89 75 e0          	mov    %rsi,-0x20(%rbp)
    23ea:	48 8b 55 e8          	mov    -0x18(%rbp),%rdx
    23ee:	48 8b 45 e0          	mov    -0x20(%rbp),%rax
    23f2:	48 01 d0             	add    %rdx,%rax
    23f5:	48 89 45 f8          	mov    %rax,-0x8(%rbp)
    23f9:	48 8b 45 f8          	mov    -0x8(%rbp),%rax
    23fd:	48 8d 50 01          	lea    0x1(%rax),%rdx
    2401:	48 89 55 f8          	mov    %rdx,-0x8(%rbp)
    2405:	c6 00 48             	movb   $0x48,(%rax)
    2408:	48 8b 45 f8          	mov    -0x8(%rbp),%rax
    240c:	48 8d 50 01          	lea    0x1(%rax),%rdx
    2410:	48 89 55 f8          	mov    %rdx,-0x8(%rbp)
    2414:	c6 00 31             	movb   $0x31,(%rax)
    2417:	48 8b 45 f8          	mov    -0x8(%rbp),%rax
    241b:	48 8d 50 01          	lea    0x1(%rax),%rdx
    241f:	48 89 55 f8          	mov    %rdx,-0x8(%rbp)
    2423:	c6 00 c0             	movb   $0xc0,(%rax)
    2426:	48 8b 45 f8          	mov    -0x8(%rbp),%rax
    242a:	48 8d 50 01          	lea    0x1(%rax),%rdx
    242e:	48 89 55 f8          	mov    %rdx,-0x8(%rbp)
    2432:	c6 00 c3             	movb   $0xc3,(%rax)
    2435:	b8 78 00 00 00       	mov    $0x78,%eax
    243a:	5d                   	pop    %rbp
    243b:	c3                   	ret    

000000000000243c <mult_regs>:
    243c:	f3 0f 1e fa          	endbr64 
    2440:	55                   	push   %rbp
    2441:	48 89 e5             	mov    %rsp,%rbp
    2444:	48 89 7d e8          	mov    %rdi,-0x18(%rbp)
    2448:	48 89 75 e0          	mov    %rsi,-0x20(%rbp)
    244c:	89 55 dc             	mov    %edx,-0x24(%rbp)
    244f:	89 4d d8             	mov    %ecx,-0x28(%rbp)
    2452:	44 89 45 d4          	mov    %r8d,-0x2c(%rbp)
    2456:	48 8b 55 e8          	mov    -0x18(%rbp),%rdx
    245a:	48 8b 45 e0          	mov    -0x20(%rbp),%rax
    245e:	48 01 d0             	add    %rdx,%rax
    2461:	48 89 45 f0          	mov    %rax,-0x10(%rbp)
    2465:	48 8b 45 f0          	mov    -0x10(%rbp),%rax
    2469:	48 89 45 f8          	mov    %rax,-0x8(%rbp)
    246d:	48 8b 45 f0          	mov    -0x10(%rbp),%rax
    2471:	48 8d 50 01          	lea    0x1(%rax),%rdx
    2475:	48 89 55 f0          	mov    %rdx,-0x10(%rbp)
    2479:	c6 00 44             	movb   $0x44,(%rax)
    247c:	48 8b 45 f0          	mov    -0x10(%rbp),%rax
    2480:	48 8d 50 01          	lea    0x1(%rax),%rdx
    2484:	48 89 55 f0          	mov    %rdx,-0x10(%rbp)
    2488:	c6 00 89             	movb   $0x89,(%rax)
    248b:	8b 45 d8             	mov    -0x28(%rbp),%eax
    248e:	8d 0c c5 00 00 00 00 	lea    0x0(,%rax,8),%ecx
    2495:	48 8b 45 f0          	mov    -0x10(%rbp),%rax
    2499:	48 8d 50 01          	lea    0x1(%rax),%rdx
    249d:	48 89 55 f0          	mov    %rdx,-0x10(%rbp)
    24a1:	83 c9 c0             	or     $0xffffffc0,%ecx
    24a4:	89 ca                	mov    %ecx,%edx
    24a6:	88 10                	mov    %dl,(%rax)
    24a8:	48 8b 45 f0          	mov    -0x10(%rbp),%rax
    24ac:	48 8d 50 01          	lea    0x1(%rax),%rdx
    24b0:	48 89 55 f0          	mov    %rdx,-0x10(%rbp)
    24b4:	c6 00 41             	movb   $0x41,(%rax)
    24b7:	48 8b 45 f0          	mov    -0x10(%rbp),%rax
    24bb:	48 8d 50 01          	lea    0x1(%rax),%rdx
    24bf:	48 89 55 f0          	mov    %rdx,-0x10(%rbp)
    24c3:	c6 00 f7             	movb   $0xf7,(%rax)
    24c6:	8b 45 d4             	mov    -0x2c(%rbp),%eax
    24c9:	89 c1                	mov    %eax,%ecx
    24cb:	48 8b 45 f0          	mov    -0x10(%rbp),%rax
    24cf:	48 8d 50 01          	lea    0x1(%rax),%rdx
    24d3:	48 89 55 f0          	mov    %rdx,-0x10(%rbp)
    24d7:	83 c9 e0             	or     $0xffffffe0,%ecx
    24da:	89 ca                	mov    %ecx,%edx
    24dc:	88 10                	mov    %dl,(%rax)
    24de:	48 8b 45 f0          	mov    -0x10(%rbp),%rax
    24e2:	48 8d 50 01          	lea    0x1(%rax),%rdx
    24e6:	48 89 55 f0          	mov    %rdx,-0x10(%rbp)
    24ea:	c6 00 41             	movb   $0x41,(%rax)
    24ed:	48 8b 45 f0          	mov    -0x10(%rbp),%rax
    24f1:	48 8d 50 01          	lea    0x1(%rax),%rdx
    24f5:	48 89 55 f0          	mov    %rdx,-0x10(%rbp)
    24f9:	c6 00 89             	movb   $0x89,(%rax)
    24fc:	8b 45 dc             	mov    -0x24(%rbp),%eax
    24ff:	89 c1                	mov    %eax,%ecx
    2501:	48 8b 45 f0          	mov    -0x10(%rbp),%rax
    2505:	48 8d 50 01          	lea    0x1(%rax),%rdx
    2509:	48 89 55 f0          	mov    %rdx,-0x10(%rbp)
    250d:	83 c9 c0             	or     $0xffffffc0,%ecx
    2510:	89 ca                	mov    %ecx,%edx
    2512:	88 10                	mov    %dl,(%rax)
    2514:	48 8b 45 f0          	mov    -0x10(%rbp),%rax
    2518:	48 8d 50 01          	lea    0x1(%rax),%rdx
    251c:	48 89 55 f0          	mov    %rdx,-0x10(%rbp)
    2520:	c6 00 eb             	movb   $0xeb,(%rax)
    2523:	48 8b 45 f0          	mov    -0x10(%rbp),%rax
    2527:	48 2b 45 f8          	sub    -0x8(%rbp),%rax
    252b:	89 c1                	mov    %eax,%ecx
    252d:	b8 77 00 00 00       	mov    $0x77,%eax
    2532:	29 c8                	sub    %ecx,%eax
    2534:	89 c2                	mov    %eax,%edx
    2536:	48 8b 45 f0          	mov    -0x10(%rbp),%rax
    253a:	88 10                	mov    %dl,(%rax)
    253c:	b8 78 00 00 00       	mov    $0x78,%eax
    2541:	5d                   	pop    %rbp
    2542:	c3                   	ret    

0000000000002543 <div_regs>:
    2543:	f3 0f 1e fa          	endbr64 
    2547:	55                   	push   %rbp
    2548:	48 89 e5             	mov    %rsp,%rbp
    254b:	48 89 7d e8          	mov    %rdi,-0x18(%rbp)
    254f:	48 89 75 e0          	mov    %rsi,-0x20(%rbp)
    2553:	89 55 dc             	mov    %edx,-0x24(%rbp)
    2556:	89 4d d8             	mov    %ecx,-0x28(%rbp)
    2559:	44 89 45 d4          	mov    %r8d,-0x2c(%rbp)
    255d:	48 8b 55 e8          	mov    -0x18(%rbp),%rdx
    2561:	48 8b 45 e0          	mov    -0x20(%rbp),%rax
    2565:	48 01 d0             	add    %rdx,%rax
    2568:	48 89 45 f0          	mov    %rax,-0x10(%rbp)
    256c:	48 8b 45 f0          	mov    -0x10(%rbp),%rax
    2570:	48 89 45 f8          	mov    %rax,-0x8(%rbp)
    2574:	48 8b 45 f0          	mov    -0x10(%rbp),%rax
    2578:	48 8d 50 01          	lea    0x1(%rax),%rdx
    257c:	48 89 55 f0          	mov    %rdx,-0x10(%rbp)
    2580:	c6 00 48             	movb   $0x48,(%rax)
    2583:	48 8b 45 f0          	mov    -0x10(%rbp),%rax
    2587:	48 8d 50 01          	lea    0x1(%rax),%rdx
    258b:	48 89 55 f0          	mov    %rdx,-0x10(%rbp)
    258f:	c6 00 31             	movb   $0x31,(%rax)
    2592:	48 8b 45 f0          	mov    -0x10(%rbp),%rax
    2596:	48 8d 50 01          	lea    0x1(%rax),%rdx
    259a:	48 89 55 f0          	mov    %rdx,-0x10(%rbp)
    259e:	c6 00 d2             	movb   $0xd2,(%rax)
    25a1:	48 8b 45 f0          	mov    -0x10(%rbp),%rax
    25a5:	48 8d 50 01          	lea    0x1(%rax),%rdx
    25a9:	48 89 55 f0          	mov    %rdx,-0x10(%rbp)
    25ad:	c6 00 44             	movb   $0x44,(%rax)
    25b0:	48 8b 45 f0          	mov    -0x10(%rbp),%rax
    25b4:	48 8d 50 01          	lea    0x1(%rax),%rdx
    25b8:	48 89 55 f0          	mov    %rdx,-0x10(%rbp)
    25bc:	c6 00 89             	movb   $0x89,(%rax)
    25bf:	8b 45 d8             	mov    -0x28(%rbp),%eax
    25c2:	8d 0c c5 00 00 00 00 	lea    0x0(,%rax,8),%ecx
    25c9:	48 8b 45 f0          	mov    -0x10(%rbp),%rax
    25cd:	48 8d 50 01          	lea    0x1(%rax),%rdx
    25d1:	48 89 55 f0          	mov    %rdx,-0x10(%rbp)
    25d5:	83 c9 c0             	or     $0xffffffc0,%ecx
    25d8:	89 ca                	mov    %ecx,%edx
    25da:	88 10                	mov    %dl,(%rax)
    25dc:	48 8b 45 f0          	mov    -0x10(%rbp),%rax
    25e0:	48 8d 50 01          	lea    0x1(%rax),%rdx
    25e4:	48 89 55 f0          	mov    %rdx,-0x10(%rbp)
    25e8:	c6 00 49             	movb   $0x49,(%rax)
    25eb:	48 8b 45 f0          	mov    -0x10(%rbp),%rax
    25ef:	48 8d 50 01          	lea    0x1(%rax),%rdx
    25f3:	48 89 55 f0          	mov    %rdx,-0x10(%rbp)
    25f7:	c6 00 f7             	movb   $0xf7,(%rax)
    25fa:	8b 45 d4             	mov    -0x2c(%rbp),%eax
    25fd:	89 c1                	mov    %eax,%ecx
    25ff:	48 8b 45 f0          	mov    -0x10(%rbp),%rax
    2603:	48 8d 50 01          	lea    0x1(%rax),%rdx
    2607:	48 89 55 f0          	mov    %rdx,-0x10(%rbp)
    260b:	83 c9 f0             	or     $0xfffffff0,%ecx
    260e:	89 ca                	mov    %ecx,%edx
    2610:	88 10                	mov    %dl,(%rax)
    2612:	48 8b 45 f0          	mov    -0x10(%rbp),%rax
    2616:	48 8d 50 01          	lea    0x1(%rax),%rdx
    261a:	48 89 55 f0          	mov    %rdx,-0x10(%rbp)
    261e:	c6 00 49             	movb   $0x49,(%rax)
    2621:	48 8b 45 f0          	mov    -0x10(%rbp),%rax
    2625:	48 8d 50 01          	lea    0x1(%rax),%rdx
    2629:	48 89 55 f0          	mov    %rdx,-0x10(%rbp)
    262d:	c6 00 89             	movb   $0x89,(%rax)
    2630:	8b 45 dc             	mov    -0x24(%rbp),%eax
    2633:	89 c1                	mov    %eax,%ecx
    2635:	48 8b 45 f0          	mov    -0x10(%rbp),%rax
    2639:	48 8d 50 01          	lea    0x1(%rax),%rdx
    263d:	48 89 55 f0          	mov    %rdx,-0x10(%rbp)
    2641:	83 c9 c0             	or     $0xffffffc0,%ecx
    2644:	89 ca                	mov    %ecx,%edx
    2646:	88 10                	mov    %dl,(%rax)
    2648:	48 8b 45 f0          	mov    -0x10(%rbp),%rax
    264c:	48 8d 50 01          	lea    0x1(%rax),%rdx
    2650:	48 89 55 f0          	mov    %rdx,-0x10(%rbp)
    2654:	c6 00 eb             	movb   $0xeb,(%rax)
    2657:	48 8b 45 f0          	mov    -0x10(%rbp),%rax
    265b:	48 2b 45 f8          	sub    -0x8(%rbp),%rax
    265f:	89 c1                	mov    %eax,%ecx
    2661:	b8 77 00 00 00       	mov    $0x77,%eax
    2666:	29 c8                	sub    %ecx,%eax
    2668:	89 c2                	mov    %eax,%edx
    266a:	48 8b 45 f0          	mov    -0x10(%rbp),%rax
    266e:	88 10                	mov    %dl,(%rax)
    2670:	b8 78 00 00 00       	mov    $0x78,%eax
    2675:	5d                   	pop    %rbp
    2676:	c3                   	ret    

0000000000002677 <cond_move>:
    2677:	f3 0f 1e fa          	endbr64 
    267b:	55                   	push   %rbp
    267c:	48 89 e5             	mov    %rsp,%rbp
    267f:	48 89 7d e8          	mov    %rdi,-0x18(%rbp)
    2683:	48 89 75 e0          	mov    %rsi,-0x20(%rbp)
    2687:	89 55 dc             	mov    %edx,-0x24(%rbp)
    268a:	89 4d d8             	mov    %ecx,-0x28(%rbp)
    268d:	44 89 45 d4          	mov    %r8d,-0x2c(%rbp)
    2691:	48 8b 55 e8          	mov    -0x18(%rbp),%rdx
    2695:	48 8b 45 e0          	mov    -0x20(%rbp),%rax
    2699:	48 01 d0             	add    %rdx,%rax
    269c:	48 89 45 f0          	mov    %rax,-0x10(%rbp)
    26a0:	48 8b 45 f0          	mov    -0x10(%rbp),%rax
    26a4:	48 89 45 f8          	mov    %rax,-0x8(%rbp)
    26a8:	48 8b 45 f0          	mov    -0x10(%rbp),%rax
    26ac:	48 8d 50 01          	lea    0x1(%rax),%rdx
    26b0:	48 89 55 f0          	mov    %rdx,-0x10(%rbp)
    26b4:	c6 00 41             	movb   $0x41,(%rax)
    26b7:	48 8b 45 f0          	mov    -0x10(%rbp),%rax
    26bb:	48 8d 50 01          	lea    0x1(%rax),%rdx
    26bf:	48 89 55 f0          	mov    %rdx,-0x10(%rbp)
    26c3:	c6 00 83             	movb   $0x83,(%rax)
    26c6:	8b 45 d4             	mov    -0x2c(%rbp),%eax
    26c9:	89 c1                	mov    %eax,%ecx
    26cb:	48 8b 45 f0          	mov    -0x10(%rbp),%rax
    26cf:	48 8d 50 01          	lea    0x1(%rax),%rdx
    26d3:	48 89 55 f0          	mov    %rdx,-0x10(%rbp)
    26d7:	83 c9 f8             	or     $0xfffffff8,%ecx
    26da:	89 ca                	mov    %ecx,%edx
    26dc:	88 10                	mov    %dl,(%rax)
    26de:	48 8b 45 f0          	mov    -0x10(%rbp),%rax
    26e2:	48 8d 50 01          	lea    0x1(%rax),%rdx
    26e6:	48 89 55 f0          	mov    %rdx,-0x10(%rbp)
    26ea:	c6 00 00             	movb   $0x0,(%rax)
    26ed:	48 8b 45 f0          	mov    -0x10(%rbp),%rax
    26f1:	48 8d 50 01          	lea    0x1(%rax),%rdx
    26f5:	48 89 55 f0          	mov    %rdx,-0x10(%rbp)
    26f9:	c6 00 74             	movb   $0x74,(%rax)
    26fc:	48 8b 45 f0          	mov    -0x10(%rbp),%rax
    2700:	48 8d 50 01          	lea    0x1(%rax),%rdx
    2704:	48 89 55 f0          	mov    %rdx,-0x10(%rbp)
    2708:	c6 00 03             	movb   $0x3,(%rax)
    270b:	48 8b 45 f0          	mov    -0x10(%rbp),%rax
    270f:	48 8d 50 01          	lea    0x1(%rax),%rdx
    2713:	48 89 55 f0          	mov    %rdx,-0x10(%rbp)
    2717:	c6 00 45             	movb   $0x45,(%rax)
    271a:	48 8b 45 f0          	mov    -0x10(%rbp),%rax
    271e:	48 8d 50 01          	lea    0x1(%rax),%rdx
    2722:	48 89 55 f0          	mov    %rdx,-0x10(%rbp)
    2726:	c6 00 89             	movb   $0x89,(%rax)
    2729:	8b 45 d8             	mov    -0x28(%rbp),%eax
    272c:	8d 14 c5 00 00 00 00 	lea    0x0(,%rax,8),%edx
    2733:	8b 45 dc             	mov    -0x24(%rbp),%eax
    2736:	89 d1                	mov    %edx,%ecx
    2738:	09 c1                	or     %eax,%ecx
    273a:	48 8b 45 f0          	mov    -0x10(%rbp),%rax
    273e:	48 8d 50 01          	lea    0x1(%rax),%rdx
    2742:	48 89 55 f0          	mov    %rdx,-0x10(%rbp)
    2746:	83 c9 c0             	or     $0xffffffc0,%ecx
    2749:	89 ca                	mov    %ecx,%edx
    274b:	88 10                	mov    %dl,(%rax)
    274d:	48 8b 45 f0          	mov    -0x10(%rbp),%rax
    2751:	48 8d 50 01          	lea    0x1(%rax),%rdx
    2755:	48 89 55 f0          	mov    %rdx,-0x10(%rbp)
    2759:	c6 00 eb             	movb   $0xeb,(%rax)
    275c:	48 8b 45 f0          	mov    -0x10(%rbp),%rax
    2760:	48 2b 45 f8          	sub    -0x8(%rbp),%rax
    2764:	89 c1                	mov    %eax,%ecx
    2766:	b8 77 00 00 00       	mov    $0x77,%eax
    276b:	29 c8                	sub    %ecx,%eax
    276d:	89 c2                	mov    %eax,%edx
    276f:	48 8b 45 f0          	mov    -0x10(%rbp),%rax
    2773:	88 10                	mov    %dl,(%rax)
    2775:	b8 78 00 00 00       	mov    $0x78,%eax
    277a:	5d                   	pop    %rbp
    277b:	c3                   	ret    

000000000000277c <nand_regs>:
    277c:	f3 0f 1e fa          	endbr64 
    2780:	55                   	push   %rbp
    2781:	48 89 e5             	mov    %rsp,%rbp
    2784:	48 89 7d e8          	mov    %rdi,-0x18(%rbp)
    2788:	48 89 75 e0          	mov    %rsi,-0x20(%rbp)
    278c:	89 55 dc             	mov    %edx,-0x24(%rbp)
    278f:	89 4d d8             	mov    %ecx,-0x28(%rbp)
    2792:	44 89 45 d4          	mov    %r8d,-0x2c(%rbp)
    2796:	48 8b 55 e8          	mov    -0x18(%rbp),%rdx
    279a:	48 8b 45 e0          	mov    -0x20(%rbp),%rax
    279e:	48 01 d0             	add    %rdx,%rax
    27a1:	48 89 45 f0          	mov    %rax,-0x10(%rbp)
    27a5:	48 8b 45 f0          	mov    -0x10(%rbp),%rax
    27a9:	48 89 45 f8          	mov    %rax,-0x8(%rbp)
    27ad:	48 8b 45 f0          	mov    -0x10(%rbp),%rax
    27b1:	48 8d 50 01          	lea    0x1(%rax),%rdx
    27b5:	48 89 55 f0          	mov    %rdx,-0x10(%rbp)
    27b9:	c6 00 44             	movb   $0x44,(%rax)
    27bc:	48 8b 45 f0          	mov    -0x10(%rbp),%rax
    27c0:	48 8d 50 01          	lea    0x1(%rax),%rdx
    27c4:	48 89 55 f0          	mov    %rdx,-0x10(%rbp)
    27c8:	c6 00 89             	movb   $0x89,(%rax)
    27cb:	8b 45 d8             	mov    -0x28(%rbp),%eax
    27ce:	8d 0c c5 00 00 00 00 	lea    0x0(,%rax,8),%ecx
    27d5:	48 8b 45 f0          	mov    -0x10(%rbp),%rax
    27d9:	48 8d 50 01          	lea    0x1(%rax),%rdx
    27dd:	48 89 55 f0          	mov    %rdx,-0x10(%rbp)
    27e1:	83 c9 c0             	or     $0xffffffc0,%ecx
    27e4:	89 ca                	mov    %ecx,%edx
    27e6:	88 10                	mov    %dl,(%rax)
    27e8:	48 8b 45 f0          	mov    -0x10(%rbp),%rax
    27ec:	48 8d 50 01          	lea    0x1(%rax),%rdx
    27f0:	48 89 55 f0          	mov    %rdx,-0x10(%rbp)
    27f4:	c6 00 44             	movb   $0x44,(%rax)
    27f7:	48 8b 45 f0          	mov    -0x10(%rbp),%rax
    27fb:	48 8d 50 01          	lea    0x1(%rax),%rdx
    27ff:	48 89 55 f0          	mov    %rdx,-0x10(%rbp)
    2803:	c6 00 21             	movb   $0x21,(%rax)
    2806:	8b 45 d4             	mov    -0x2c(%rbp),%eax
    2809:	8d 0c c5 00 00 00 00 	lea    0x0(,%rax,8),%ecx
    2810:	48 8b 45 f0          	mov    -0x10(%rbp),%rax
    2814:	48 8d 50 01          	lea    0x1(%rax),%rdx
    2818:	48 89 55 f0          	mov    %rdx,-0x10(%rbp)
    281c:	83 c9 c0             	or     $0xffffffc0,%ecx
    281f:	89 ca                	mov    %ecx,%edx
    2821:	88 10                	mov    %dl,(%rax)
    2823:	48 8b 45 f0          	mov    -0x10(%rbp),%rax
    2827:	48 8d 50 01          	lea    0x1(%rax),%rdx
    282b:	48 89 55 f0          	mov    %rdx,-0x10(%rbp)
    282f:	c6 00 40             	movb   $0x40,(%rax)
    2832:	48 8b 45 f0          	mov    -0x10(%rbp),%rax
    2836:	48 8d 50 01          	lea    0x1(%rax),%rdx
    283a:	48 89 55 f0          	mov    %rdx,-0x10(%rbp)
    283e:	c6 00 f7             	movb   $0xf7,(%rax)
    2841:	48 8b 45 f0          	mov    -0x10(%rbp),%rax
    2845:	48 8d 50 01          	lea    0x1(%rax),%rdx
    2849:	48 89 55 f0          	mov    %rdx,-0x10(%rbp)
    284d:	c6 00 d0             	movb   $0xd0,(%rax)
    2850:	48 8b 45 f0          	mov    -0x10(%rbp),%rax
    2854:	48 8d 50 01          	lea    0x1(%rax),%rdx
    2858:	48 89 55 f0          	mov    %rdx,-0x10(%rbp)
    285c:	c6 00 41             	movb   $0x41,(%rax)
    285f:	48 8b 45 f0          	mov    -0x10(%rbp),%rax
    2863:	48 8d 50 01          	lea    0x1(%rax),%rdx
    2867:	48 89 55 f0          	mov    %rdx,-0x10(%rbp)
    286b:	c6 00 89             	movb   $0x89,(%rax)
    286e:	8b 45 dc             	mov    -0x24(%rbp),%eax
    2871:	89 c1                	mov    %eax,%ecx
    2873:	48 8b 45 f0          	mov    -0x10(%rbp),%rax
    2877:	48 8d 50 01          	lea    0x1(%rax),%rdx
    287b:	48 89 55 f0          	mov    %rdx,-0x10(%rbp)
    287f:	83 c9 c0             	or     $0xffffffc0,%ecx
    2882:	89 ca                	mov    %ecx,%edx
    2884:	88 10                	mov    %dl,(%rax)
    2886:	48 8b 45 f0          	mov    -0x10(%rbp),%rax
    288a:	48 8d 50 01          	lea    0x1(%rax),%rdx
    288e:	48 89 55 f0          	mov    %rdx,-0x10(%rbp)
    2892:	c6 00 eb             	movb   $0xeb,(%rax)
    2895:	48 8b 45 f0          	mov    -0x10(%rbp),%rax
    2899:	48 2b 45 f8          	sub    -0x8(%rbp),%rax
    289d:	89 c1                	mov    %eax,%ecx
    289f:	b8 77 00 00 00       	mov    $0x77,%eax
    28a4:	29 c8                	sub    %ecx,%eax
    28a6:	89 c2                	mov    %eax,%edx
    28a8:	48 8b 45 f0          	mov    -0x10(%rbp),%rax
    28ac:	88 10                	mov    %dl,(%rax)
    28ae:	b8 78 00 00 00       	mov    $0x78,%eax
    28b3:	5d                   	pop    %rbp
    28b4:	c3                   	ret    

00000000000028b5 <print_reg>:
    28b5:	f3 0f 1e fa          	endbr64 
    28b9:	55                   	push   %rbp
    28ba:	48 89 e5             	mov    %rsp,%rbp
    28bd:	48 83 ec 40          	sub    $0x40,%rsp
    28c1:	48 89 7d d8          	mov    %rdi,-0x28(%rbp)
    28c5:	48 89 75 d0          	mov    %rsi,-0x30(%rbp)
    28c9:	89 55 cc             	mov    %edx,-0x34(%rbp)
    28cc:	64 48 8b 04 25 28 00 	mov    %fs:0x28,%rax
    28d3:	00 00 
    28d5:	48 89 45 f8          	mov    %rax,-0x8(%rbp)
    28d9:	31 c0                	xor    %eax,%eax
    28db:	48 8b 05 ee 36 00 00 	mov    0x36ee(%rip),%rax        # 5fd0 <putchar@GLIBC_2.2.5>
    28e2:	48 89 45 e0          	mov    %rax,-0x20(%rbp)
    28e6:	48 8b 55 d8          	mov    -0x28(%rbp),%rdx
    28ea:	48 8b 45 d0          	mov    -0x30(%rbp),%rax
    28ee:	48 01 d0             	add    %rdx,%rax
    28f1:	48 89 45 e8          	mov    %rax,-0x18(%rbp)
    28f5:	48 8b 45 e8          	mov    -0x18(%rbp),%rax
    28f9:	48 89 45 f0          	mov    %rax,-0x10(%rbp)
    28fd:	48 8b 45 e8          	mov    -0x18(%rbp),%rax
    2901:	48 8d 50 01          	lea    0x1(%rax),%rdx
    2905:	48 89 55 e8          	mov    %rdx,-0x18(%rbp)
    2909:	c6 00 44             	movb   $0x44,(%rax)
    290c:	48 8b 45 e8          	mov    -0x18(%rbp),%rax
    2910:	48 8d 50 01          	lea    0x1(%rax),%rdx
    2914:	48 89 55 e8          	mov    %rdx,-0x18(%rbp)
    2918:	c6 00 89             	movb   $0x89,(%rax)
    291b:	8b 45 cc             	mov    -0x34(%rbp),%eax
    291e:	8d 0c c5 00 00 00 00 	lea    0x0(,%rax,8),%ecx
    2925:	48 8b 45 e8          	mov    -0x18(%rbp),%rax
    2929:	48 8d 50 01          	lea    0x1(%rax),%rdx
    292d:	48 89 55 e8          	mov    %rdx,-0x18(%rbp)
    2931:	83 c9 c7             	or     $0xffffffc7,%ecx
    2934:	89 ca                	mov    %ecx,%edx
    2936:	88 10                	mov    %dl,(%rax)
    2938:	48 8b 45 e8          	mov    -0x18(%rbp),%rax
    293c:	48 8d 50 01          	lea    0x1(%rax),%rdx
    2940:	48 89 55 e8          	mov    %rdx,-0x18(%rbp)
    2944:	c6 00 41             	movb   $0x41,(%rax)
    2947:	48 8b 45 e8          	mov    -0x18(%rbp),%rax
    294b:	48 8d 50 01          	lea    0x1(%rax),%rdx
    294f:	48 89 55 e8          	mov    %rdx,-0x18(%rbp)
    2953:	c6 00 50             	movb   $0x50,(%rax)
    2956:	48 8b 45 e8          	mov    -0x18(%rbp),%rax
    295a:	48 8d 50 01          	lea    0x1(%rax),%rdx
    295e:	48 89 55 e8          	mov    %rdx,-0x18(%rbp)
    2962:	c6 00 41             	movb   $0x41,(%rax)
    2965:	48 8b 45 e8          	mov    -0x18(%rbp),%rax
    2969:	48 8d 50 01          	lea    0x1(%rax),%rdx
    296d:	48 89 55 e8          	mov    %rdx,-0x18(%rbp)
    2971:	c6 00 51             	movb   $0x51,(%rax)
    2974:	48 8b 45 e8          	mov    -0x18(%rbp),%rax
    2978:	48 8d 50 01          	lea    0x1(%rax),%rdx
    297c:	48 89 55 e8          	mov    %rdx,-0x18(%rbp)
    2980:	c6 00 41             	movb   $0x41,(%rax)
    2983:	48 8b 45 e8          	mov    -0x18(%rbp),%rax
    2987:	48 8d 50 01          	lea    0x1(%rax),%rdx
    298b:	48 89 55 e8          	mov    %rdx,-0x18(%rbp)
    298f:	c6 00 52             	movb   $0x52,(%rax)
    2992:	48 8b 45 e8          	mov    -0x18(%rbp),%rax
    2996:	48 8d 50 01          	lea    0x1(%rax),%rdx
    299a:	48 89 55 e8          	mov    %rdx,-0x18(%rbp)
    299e:	c6 00 41             	movb   $0x41,(%rax)
    29a1:	48 8b 45 e8          	mov    -0x18(%rbp),%rax
    29a5:	48 8d 50 01          	lea    0x1(%rax),%rdx
    29a9:	48 89 55 e8          	mov    %rdx,-0x18(%rbp)
    29ad:	c6 00 53             	movb   $0x53,(%rax)
    29b0:	48 8b 45 e8          	mov    -0x18(%rbp),%rax
    29b4:	48 8d 50 01          	lea    0x1(%rax),%rdx
    29b8:	48 89 55 e8          	mov    %rdx,-0x18(%rbp)
    29bc:	c6 00 48             	movb   $0x48,(%rax)
    29bf:	48 8b 45 e8          	mov    -0x18(%rbp),%rax
    29c3:	48 8d 50 01          	lea    0x1(%rax),%rdx
    29c7:	48 89 55 e8          	mov    %rdx,-0x18(%rbp)
    29cb:	c6 00 b8             	movb   $0xb8,(%rax)
    29ce:	48 8b 55 e0          	mov    -0x20(%rbp),%rdx
    29d2:	48 8b 45 e8          	mov    -0x18(%rbp),%rax
    29d6:	48 89 10             	mov    %rdx,(%rax)
    29d9:	48 83 45 e8 08       	addq   $0x8,-0x18(%rbp)
    29de:	48 8b 45 e8          	mov    -0x18(%rbp),%rax
    29e2:	48 8d 50 01          	lea    0x1(%rax),%rdx
    29e6:	48 89 55 e8          	mov    %rdx,-0x18(%rbp)
    29ea:	c6 00 ff             	movb   $0xff,(%rax)
    29ed:	48 8b 45 e8          	mov    -0x18(%rbp),%rax
    29f1:	48 8d 50 01          	lea    0x1(%rax),%rdx
    29f5:	48 89 55 e8          	mov    %rdx,-0x18(%rbp)
    29f9:	c6 00 d0             	movb   $0xd0,(%rax)
    29fc:	48 8b 45 e8          	mov    -0x18(%rbp),%rax
    2a00:	48 8d 50 01          	lea    0x1(%rax),%rdx
    2a04:	48 89 55 e8          	mov    %rdx,-0x18(%rbp)
    2a08:	c6 00 41             	movb   $0x41,(%rax)
    2a0b:	48 8b 45 e8          	mov    -0x18(%rbp),%rax
    2a0f:	48 8d 50 01          	lea    0x1(%rax),%rdx
    2a13:	48 89 55 e8          	mov    %rdx,-0x18(%rbp)
    2a17:	c6 00 5b             	movb   $0x5b,(%rax)
    2a1a:	48 8b 45 e8          	mov    -0x18(%rbp),%rax
    2a1e:	48 8d 50 01          	lea    0x1(%rax),%rdx
    2a22:	48 89 55 e8          	mov    %rdx,-0x18(%rbp)
    2a26:	c6 00 41             	movb   $0x41,(%rax)
    2a29:	48 8b 45 e8          	mov    -0x18(%rbp),%rax
    2a2d:	48 8d 50 01          	lea    0x1(%rax),%rdx
    2a31:	48 89 55 e8          	mov    %rdx,-0x18(%rbp)
    2a35:	c6 00 5a             	movb   $0x5a,(%rax)
    2a38:	48 8b 45 e8          	mov    -0x18(%rbp),%rax
    2a3c:	48 8d 50 01          	lea    0x1(%rax),%rdx
    2a40:	48 89 55 e8          	mov    %rdx,-0x18(%rbp)
    2a44:	c6 00 41             	movb   $0x41,(%rax)
    2a47:	48 8b 45 e8          	mov    -0x18(%rbp),%rax
    2a4b:	48 8d 50 01          	lea    0x1(%rax),%rdx
    2a4f:	48 89 55 e8          	mov    %rdx,-0x18(%rbp)
    2a53:	c6 00 59             	movb   $0x59,(%rax)
    2a56:	48 8b 45 e8          	mov    -0x18(%rbp),%rax
    2a5a:	48 8d 50 01          	lea    0x1(%rax),%rdx
    2a5e:	48 89 55 e8          	mov    %rdx,-0x18(%rbp)
    2a62:	c6 00 41             	movb   $0x41,(%rax)
    2a65:	48 8b 45 e8          	mov    -0x18(%rbp),%rax
    2a69:	48 8d 50 01          	lea    0x1(%rax),%rdx
    2a6d:	48 89 55 e8          	mov    %rdx,-0x18(%rbp)
    2a71:	c6 00 58             	movb   $0x58,(%rax)
    2a74:	48 8b 45 e8          	mov    -0x18(%rbp),%rax
    2a78:	48 8d 50 01          	lea    0x1(%rax),%rdx
    2a7c:	48 89 55 e8          	mov    %rdx,-0x18(%rbp)
    2a80:	c6 00 eb             	movb   $0xeb,(%rax)
    2a83:	48 8b 45 e8          	mov    -0x18(%rbp),%rax
    2a87:	48 2b 45 f0          	sub    -0x10(%rbp),%rax
    2a8b:	89 c1                	mov    %eax,%ecx
    2a8d:	b8 77 00 00 00       	mov    $0x77,%eax
    2a92:	29 c8                	sub    %ecx,%eax
    2a94:	89 c2                	mov    %eax,%edx
    2a96:	48 8b 45 e8          	mov    -0x18(%rbp),%rax
    2a9a:	88 10                	mov    %dl,(%rax)
    2a9c:	b8 78 00 00 00       	mov    $0x78,%eax
    2aa1:	48 8b 55 f8          	mov    -0x8(%rbp),%rdx
    2aa5:	64 48 2b 14 25 28 00 	sub    %fs:0x28,%rdx
    2aac:	00 00 
    2aae:	74 05                	je     2ab5 <print_reg+0x200>
    2ab0:	e8 9b e6 ff ff       	call   1150 <__stack_chk_fail@plt>
    2ab5:	c9                   	leave  
    2ab6:	c3                   	ret    

0000000000002ab7 <read_into_reg>:
    2ab7:	f3 0f 1e fa          	endbr64 
    2abb:	55                   	push   %rbp
    2abc:	48 89 e5             	mov    %rsp,%rbp
    2abf:	48 83 ec 40          	sub    $0x40,%rsp
    2ac3:	48 89 7d d8          	mov    %rdi,-0x28(%rbp)
    2ac7:	48 89 75 d0          	mov    %rsi,-0x30(%rbp)
    2acb:	89 55 cc             	mov    %edx,-0x34(%rbp)
    2ace:	64 48 8b 04 25 28 00 	mov    %fs:0x28,%rax
    2ad5:	00 00 
    2ad7:	48 89 45 f8          	mov    %rax,-0x8(%rbp)
    2adb:	31 c0                	xor    %eax,%eax
    2add:	48 8b 55 d8          	mov    -0x28(%rbp),%rdx
    2ae1:	48 8b 45 d0          	mov    -0x30(%rbp),%rax
    2ae5:	48 01 d0             	add    %rdx,%rax
    2ae8:	48 89 45 e8          	mov    %rax,-0x18(%rbp)
    2aec:	48 8b 45 e8          	mov    -0x18(%rbp),%rax
    2af0:	48 89 45 f0          	mov    %rax,-0x10(%rbp)
    2af4:	48 8d 05 ff ed ff ff 	lea    -0x1201(%rip),%rax        # 18fa <read_char>
    2afb:	48 89 45 e0          	mov    %rax,-0x20(%rbp)
    2aff:	48 8b 45 e8          	mov    -0x18(%rbp),%rax
    2b03:	48 8d 50 01          	lea    0x1(%rax),%rdx
    2b07:	48 89 55 e8          	mov    %rdx,-0x18(%rbp)
    2b0b:	c6 00 48             	movb   $0x48,(%rax)
    2b0e:	48 8b 45 e8          	mov    -0x18(%rbp),%rax
    2b12:	48 8d 50 01          	lea    0x1(%rax),%rdx
    2b16:	48 89 55 e8          	mov    %rdx,-0x18(%rbp)
    2b1a:	c6 00 b8             	movb   $0xb8,(%rax)
    2b1d:	48 8b 55 e0          	mov    -0x20(%rbp),%rdx
    2b21:	48 8b 45 e8          	mov    -0x18(%rbp),%rax
    2b25:	48 89 10             	mov    %rdx,(%rax)
    2b28:	48 83 45 e8 08       	addq   $0x8,-0x18(%rbp)
    2b2d:	48 8b 45 e8          	mov    -0x18(%rbp),%rax
    2b31:	48 8d 50 01          	lea    0x1(%rax),%rdx
    2b35:	48 89 55 e8          	mov    %rdx,-0x18(%rbp)
    2b39:	c6 00 ff             	movb   $0xff,(%rax)
    2b3c:	48 8b 45 e8          	mov    -0x18(%rbp),%rax
    2b40:	48 8d 50 01          	lea    0x1(%rax),%rdx
    2b44:	48 89 55 e8          	mov    %rdx,-0x18(%rbp)
    2b48:	c6 00 d0             	movb   $0xd0,(%rax)
    2b4b:	48 8b 45 e8          	mov    -0x18(%rbp),%rax
    2b4f:	48 8d 50 01          	lea    0x1(%rax),%rdx
    2b53:	48 89 55 e8          	mov    %rdx,-0x18(%rbp)
    2b57:	c6 00 41             	movb   $0x41,(%rax)
    2b5a:	48 8b 45 e8          	mov    -0x18(%rbp),%rax
    2b5e:	48 8d 50 01          	lea    0x1(%rax),%rdx
    2b62:	48 89 55 e8          	mov    %rdx,-0x18(%rbp)
    2b66:	c6 00 89             	movb   $0x89,(%rax)
    2b69:	8b 45 cc             	mov    -0x34(%rbp),%eax
    2b6c:	89 c1                	mov    %eax,%ecx
    2b6e:	48 8b 45 e8          	mov    -0x18(%rbp),%rax
    2b72:	48 8d 50 01          	lea    0x1(%rax),%rdx
    2b76:	48 89 55 e8          	mov    %rdx,-0x18(%rbp)
    2b7a:	83 c9 c0             	or     $0xffffffc0,%ecx
    2b7d:	89 ca                	mov    %ecx,%edx
    2b7f:	88 10                	mov    %dl,(%rax)
    2b81:	48 8b 45 e8          	mov    -0x18(%rbp),%rax
    2b85:	48 8d 50 01          	lea    0x1(%rax),%rdx
    2b89:	48 89 55 e8          	mov    %rdx,-0x18(%rbp)
    2b8d:	c6 00 eb             	movb   $0xeb,(%rax)
    2b90:	48 8b 45 e8          	mov    -0x18(%rbp),%rax
    2b94:	48 2b 45 f0          	sub    -0x10(%rbp),%rax
    2b98:	89 c1                	mov    %eax,%ecx
    2b9a:	b8 77 00 00 00       	mov    $0x77,%eax
    2b9f:	29 c8                	sub    %ecx,%eax
    2ba1:	89 c2                	mov    %eax,%edx
    2ba3:	48 8b 45 e8          	mov    -0x18(%rbp),%rax
    2ba7:	88 10                	mov    %dl,(%rax)
    2ba9:	b8 78 00 00 00       	mov    $0x78,%eax
    2bae:	48 8b 55 f8          	mov    -0x8(%rbp),%rdx
    2bb2:	64 48 2b 14 25 28 00 	sub    %fs:0x28,%rdx
    2bb9:	00 00 
    2bbb:	74 05                	je     2bc2 <read_into_reg+0x10b>
    2bbd:	e8 8e e5 ff ff       	call   1150 <__stack_chk_fail@plt>
    2bc2:	c9                   	leave  
    2bc3:	c3                   	ret    

0000000000002bc4 <inject_map_segment>:
    2bc4:	f3 0f 1e fa          	endbr64 
    2bc8:	55                   	push   %rbp
    2bc9:	48 89 e5             	mov    %rsp,%rbp
    2bcc:	48 83 ec 40          	sub    $0x40,%rsp
    2bd0:	48 89 7d d8          	mov    %rdi,-0x28(%rbp)
    2bd4:	48 89 75 d0          	mov    %rsi,-0x30(%rbp)
    2bd8:	89 55 cc             	mov    %edx,-0x34(%rbp)
    2bdb:	89 4d c8             	mov    %ecx,-0x38(%rbp)
    2bde:	64 48 8b 04 25 28 00 	mov    %fs:0x28,%rax
    2be5:	00 00 
    2be7:	48 89 45 f8          	mov    %rax,-0x8(%rbp)
    2beb:	31 c0                	xor    %eax,%eax
    2bed:	48 8d 05 c8 ed ff ff 	lea    -0x1238(%rip),%rax        # 19bc <map_segment>
    2bf4:	48 89 45 e0          	mov    %rax,-0x20(%rbp)
    2bf8:	48 8b 55 d8          	mov    -0x28(%rbp),%rdx
    2bfc:	48 8b 45 d0          	mov    -0x30(%rbp),%rax
    2c00:	48 01 d0             	add    %rdx,%rax
    2c03:	48 89 45 e8          	mov    %rax,-0x18(%rbp)
    2c07:	48 8b 45 e8          	mov    -0x18(%rbp),%rax
    2c0b:	48 89 45 f0          	mov    %rax,-0x10(%rbp)
    2c0f:	48 8b 45 e8          	mov    -0x18(%rbp),%rax
    2c13:	48 8d 50 01          	lea    0x1(%rax),%rdx
    2c17:	48 89 55 e8          	mov    %rdx,-0x18(%rbp)
    2c1b:	c6 00 44             	movb   $0x44,(%rax)
    2c1e:	48 8b 45 e8          	mov    -0x18(%rbp),%rax
    2c22:	48 8d 50 01          	lea    0x1(%rax),%rdx
    2c26:	48 89 55 e8          	mov    %rdx,-0x18(%rbp)
    2c2a:	c6 00 89             	movb   $0x89,(%rax)
    2c2d:	8b 45 c8             	mov    -0x38(%rbp),%eax
    2c30:	8d 0c c5 00 00 00 00 	lea    0x0(,%rax,8),%ecx
    2c37:	48 8b 45 e8          	mov    -0x18(%rbp),%rax
    2c3b:	48 8d 50 01          	lea    0x1(%rax),%rdx
    2c3f:	48 89 55 e8          	mov    %rdx,-0x18(%rbp)
    2c43:	83 c9 c7             	or     $0xffffffc7,%ecx
    2c46:	89 ca                	mov    %ecx,%edx
    2c48:	88 10                	mov    %dl,(%rax)
    2c4a:	48 8b 45 e8          	mov    -0x18(%rbp),%rax
    2c4e:	48 8d 50 01          	lea    0x1(%rax),%rdx
    2c52:	48 89 55 e8          	mov    %rdx,-0x18(%rbp)
    2c56:	c6 00 41             	movb   $0x41,(%rax)
    2c59:	48 8b 45 e8          	mov    -0x18(%rbp),%rax
    2c5d:	48 8d 50 01          	lea    0x1(%rax),%rdx
    2c61:	48 89 55 e8          	mov    %rdx,-0x18(%rbp)
    2c65:	c6 00 50             	movb   $0x50,(%rax)
    2c68:	48 8b 45 e8          	mov    -0x18(%rbp),%rax
    2c6c:	48 8d 50 01          	lea    0x1(%rax),%rdx
    2c70:	48 89 55 e8          	mov    %rdx,-0x18(%rbp)
    2c74:	c6 00 41             	movb   $0x41,(%rax)
    2c77:	48 8b 45 e8          	mov    -0x18(%rbp),%rax
    2c7b:	48 8d 50 01          	lea    0x1(%rax),%rdx
    2c7f:	48 89 55 e8          	mov    %rdx,-0x18(%rbp)
    2c83:	c6 00 51             	movb   $0x51,(%rax)
    2c86:	48 8b 45 e8          	mov    -0x18(%rbp),%rax
    2c8a:	48 8d 50 01          	lea    0x1(%rax),%rdx
    2c8e:	48 89 55 e8          	mov    %rdx,-0x18(%rbp)
    2c92:	c6 00 41             	movb   $0x41,(%rax)
    2c95:	48 8b 45 e8          	mov    -0x18(%rbp),%rax
    2c99:	48 8d 50 01          	lea    0x1(%rax),%rdx
    2c9d:	48 89 55 e8          	mov    %rdx,-0x18(%rbp)
    2ca1:	c6 00 52             	movb   $0x52,(%rax)
    2ca4:	48 8b 45 e8          	mov    -0x18(%rbp),%rax
    2ca8:	48 8d 50 01          	lea    0x1(%rax),%rdx
    2cac:	48 89 55 e8          	mov    %rdx,-0x18(%rbp)
    2cb0:	c6 00 41             	movb   $0x41,(%rax)
    2cb3:	48 8b 45 e8          	mov    -0x18(%rbp),%rax
    2cb7:	48 8d 50 01          	lea    0x1(%rax),%rdx
    2cbb:	48 89 55 e8          	mov    %rdx,-0x18(%rbp)
    2cbf:	c6 00 53             	movb   $0x53,(%rax)
    2cc2:	48 8b 45 e8          	mov    -0x18(%rbp),%rax
    2cc6:	48 8d 50 01          	lea    0x1(%rax),%rdx
    2cca:	48 89 55 e8          	mov    %rdx,-0x18(%rbp)
    2cce:	c6 00 48             	movb   $0x48,(%rax)
    2cd1:	48 8b 45 e8          	mov    -0x18(%rbp),%rax
    2cd5:	48 8d 50 01          	lea    0x1(%rax),%rdx
    2cd9:	48 89 55 e8          	mov    %rdx,-0x18(%rbp)
    2cdd:	c6 00 b8             	movb   $0xb8,(%rax)
    2ce0:	48 8b 55 e0          	mov    -0x20(%rbp),%rdx
    2ce4:	48 8b 45 e8          	mov    -0x18(%rbp),%rax
    2ce8:	48 89 10             	mov    %rdx,(%rax)
    2ceb:	48 83 45 e8 08       	addq   $0x8,-0x18(%rbp)
    2cf0:	48 8b 45 e8          	mov    -0x18(%rbp),%rax
    2cf4:	48 8d 50 01          	lea    0x1(%rax),%rdx
    2cf8:	48 89 55 e8          	mov    %rdx,-0x18(%rbp)
    2cfc:	c6 00 ff             	movb   $0xff,(%rax)
    2cff:	48 8b 45 e8          	mov    -0x18(%rbp),%rax
    2d03:	48 8d 50 01          	lea    0x1(%rax),%rdx
    2d07:	48 89 55 e8          	mov    %rdx,-0x18(%rbp)
    2d0b:	c6 00 d0             	movb   $0xd0,(%rax)
    2d0e:	48 8b 45 e8          	mov    -0x18(%rbp),%rax
    2d12:	48 8d 50 01          	lea    0x1(%rax),%rdx
    2d16:	48 89 55 e8          	mov    %rdx,-0x18(%rbp)
    2d1a:	c6 00 41             	movb   $0x41,(%rax)
    2d1d:	48 8b 45 e8          	mov    -0x18(%rbp),%rax
    2d21:	48 8d 50 01          	lea    0x1(%rax),%rdx
    2d25:	48 89 55 e8          	mov    %rdx,-0x18(%rbp)
    2d29:	c6 00 5b             	movb   $0x5b,(%rax)
    2d2c:	48 8b 45 e8          	mov    -0x18(%rbp),%rax
    2d30:	48 8d 50 01          	lea    0x1(%rax),%rdx
    2d34:	48 89 55 e8          	mov    %rdx,-0x18(%rbp)
    2d38:	c6 00 41             	movb   $0x41,(%rax)
    2d3b:	48 8b 45 e8          	mov    -0x18(%rbp),%rax
    2d3f:	48 8d 50 01          	lea    0x1(%rax),%rdx
    2d43:	48 89 55 e8          	mov    %rdx,-0x18(%rbp)
    2d47:	c6 00 5a             	movb   $0x5a,(%rax)
    2d4a:	48 8b 45 e8          	mov    -0x18(%rbp),%rax
    2d4e:	48 8d 50 01          	lea    0x1(%rax),%rdx
    2d52:	48 89 55 e8          	mov    %rdx,-0x18(%rbp)
    2d56:	c6 00 41             	movb   $0x41,(%rax)
    2d59:	48 8b 45 e8          	mov    -0x18(%rbp),%rax
    2d5d:	48 8d 50 01          	lea    0x1(%rax),%rdx
    2d61:	48 89 55 e8          	mov    %rdx,-0x18(%rbp)
    2d65:	c6 00 59             	movb   $0x59,(%rax)
    2d68:	48 8b 45 e8          	mov    -0x18(%rbp),%rax
    2d6c:	48 8d 50 01          	lea    0x1(%rax),%rdx
    2d70:	48 89 55 e8          	mov    %rdx,-0x18(%rbp)
    2d74:	c6 00 41             	movb   $0x41,(%rax)
    2d77:	48 8b 45 e8          	mov    -0x18(%rbp),%rax
    2d7b:	48 8d 50 01          	lea    0x1(%rax),%rdx
    2d7f:	48 89 55 e8          	mov    %rdx,-0x18(%rbp)
    2d83:	c6 00 58             	movb   $0x58,(%rax)
    2d86:	48 8b 45 e8          	mov    -0x18(%rbp),%rax
    2d8a:	48 8d 50 01          	lea    0x1(%rax),%rdx
    2d8e:	48 89 55 e8          	mov    %rdx,-0x18(%rbp)
    2d92:	c6 00 41             	movb   $0x41,(%rax)
    2d95:	48 8b 45 e8          	mov    -0x18(%rbp),%rax
    2d99:	48 8d 50 01          	lea    0x1(%rax),%rdx
    2d9d:	48 89 55 e8          	mov    %rdx,-0x18(%rbp)
    2da1:	c6 00 89             	movb   $0x89,(%rax)
    2da4:	8b 45 cc             	mov    -0x34(%rbp),%eax
    2da7:	89 c1                	mov    %eax,%ecx
    2da9:	48 8b 45 e8          	mov    -0x18(%rbp),%rax
    2dad:	48 8d 50 01          	lea    0x1(%rax),%rdx
    2db1:	48 89 55 e8          	mov    %rdx,-0x18(%rbp)
    2db5:	83 c9 c0             	or     $0xffffffc0,%ecx
    2db8:	89 ca                	mov    %ecx,%edx
    2dba:	88 10                	mov    %dl,(%rax)
    2dbc:	48 8b 45 e8          	mov    -0x18(%rbp),%rax
    2dc0:	48 8d 50 01          	lea    0x1(%rax),%rdx
    2dc4:	48 89 55 e8          	mov    %rdx,-0x18(%rbp)
    2dc8:	c6 00 eb             	movb   $0xeb,(%rax)
    2dcb:	48 8b 45 e8          	mov    -0x18(%rbp),%rax
    2dcf:	48 2b 45 f0          	sub    -0x10(%rbp),%rax
    2dd3:	89 c1                	mov    %eax,%ecx
    2dd5:	b8 77 00 00 00       	mov    $0x77,%eax
    2dda:	29 c8                	sub    %ecx,%eax
    2ddc:	89 c2                	mov    %eax,%edx
    2dde:	48 8b 45 e8          	mov    -0x18(%rbp),%rax
    2de2:	88 10                	mov    %dl,(%rax)
    2de4:	b8 78 00 00 00       	mov    $0x78,%eax
    2de9:	48 8b 55 f8          	mov    -0x8(%rbp),%rdx
    2ded:	64 48 2b 14 25 28 00 	sub    %fs:0x28,%rdx
    2df4:	00 00 
    2df6:	74 05                	je     2dfd <inject_map_segment+0x239>
    2df8:	e8 53 e3 ff ff       	call   1150 <__stack_chk_fail@plt>
    2dfd:	c9                   	leave  
    2dfe:	c3                   	ret    

0000000000002dff <inject_unmap_segment>:
    2dff:	f3 0f 1e fa          	endbr64 
    2e03:	55                   	push   %rbp
    2e04:	48 89 e5             	mov    %rsp,%rbp
    2e07:	48 83 ec 40          	sub    $0x40,%rsp
    2e0b:	48 89 7d d8          	mov    %rdi,-0x28(%rbp)
    2e0f:	48 89 75 d0          	mov    %rsi,-0x30(%rbp)
    2e13:	89 55 cc             	mov    %edx,-0x34(%rbp)
    2e16:	64 48 8b 04 25 28 00 	mov    %fs:0x28,%rax
    2e1d:	00 00 
    2e1f:	48 89 45 f8          	mov    %rax,-0x8(%rbp)
    2e23:	31 c0                	xor    %eax,%eax
    2e25:	48 8d 05 11 ee ff ff 	lea    -0x11ef(%rip),%rax        # 1c3d <unmap_segment>
    2e2c:	48 89 45 e0          	mov    %rax,-0x20(%rbp)
    2e30:	48 8b 55 d8          	mov    -0x28(%rbp),%rdx
    2e34:	48 8b 45 d0          	mov    -0x30(%rbp),%rax
    2e38:	48 01 d0             	add    %rdx,%rax
    2e3b:	48 89 45 e8          	mov    %rax,-0x18(%rbp)
    2e3f:	48 8b 45 e8          	mov    -0x18(%rbp),%rax
    2e43:	48 89 45 f0          	mov    %rax,-0x10(%rbp)
    2e47:	48 8b 45 e8          	mov    -0x18(%rbp),%rax
    2e4b:	48 8d 50 01          	lea    0x1(%rax),%rdx
    2e4f:	48 89 55 e8          	mov    %rdx,-0x18(%rbp)
    2e53:	c6 00 44             	movb   $0x44,(%rax)
    2e56:	48 8b 45 e8          	mov    -0x18(%rbp),%rax
    2e5a:	48 8d 50 01          	lea    0x1(%rax),%rdx
    2e5e:	48 89 55 e8          	mov    %rdx,-0x18(%rbp)
    2e62:	c6 00 89             	movb   $0x89,(%rax)
    2e65:	8b 45 cc             	mov    -0x34(%rbp),%eax
    2e68:	8d 0c c5 00 00 00 00 	lea    0x0(,%rax,8),%ecx
    2e6f:	48 8b 45 e8          	mov    -0x18(%rbp),%rax
    2e73:	48 8d 50 01          	lea    0x1(%rax),%rdx
    2e77:	48 89 55 e8          	mov    %rdx,-0x18(%rbp)
    2e7b:	83 c9 c7             	or     $0xffffffc7,%ecx
    2e7e:	89 ca                	mov    %ecx,%edx
    2e80:	88 10                	mov    %dl,(%rax)
    2e82:	48 8b 45 e8          	mov    -0x18(%rbp),%rax
    2e86:	48 8d 50 01          	lea    0x1(%rax),%rdx
    2e8a:	48 89 55 e8          	mov    %rdx,-0x18(%rbp)
    2e8e:	c6 00 41             	movb   $0x41,(%rax)
    2e91:	48 8b 45 e8          	mov    -0x18(%rbp),%rax
    2e95:	48 8d 50 01          	lea    0x1(%rax),%rdx
    2e99:	48 89 55 e8          	mov    %rdx,-0x18(%rbp)
    2e9d:	c6 00 50             	movb   $0x50,(%rax)
    2ea0:	48 8b 45 e8          	mov    -0x18(%rbp),%rax
    2ea4:	48 8d 50 01          	lea    0x1(%rax),%rdx
    2ea8:	48 89 55 e8          	mov    %rdx,-0x18(%rbp)
    2eac:	c6 00 41             	movb   $0x41,(%rax)
    2eaf:	48 8b 45 e8          	mov    -0x18(%rbp),%rax
    2eb3:	48 8d 50 01          	lea    0x1(%rax),%rdx
    2eb7:	48 89 55 e8          	mov    %rdx,-0x18(%rbp)
    2ebb:	c6 00 51             	movb   $0x51,(%rax)
    2ebe:	48 8b 45 e8          	mov    -0x18(%rbp),%rax
    2ec2:	48 8d 50 01          	lea    0x1(%rax),%rdx
    2ec6:	48 89 55 e8          	mov    %rdx,-0x18(%rbp)
    2eca:	c6 00 41             	movb   $0x41,(%rax)
    2ecd:	48 8b 45 e8          	mov    -0x18(%rbp),%rax
    2ed1:	48 8d 50 01          	lea    0x1(%rax),%rdx
    2ed5:	48 89 55 e8          	mov    %rdx,-0x18(%rbp)
    2ed9:	c6 00 52             	movb   $0x52,(%rax)
    2edc:	48 8b 45 e8          	mov    -0x18(%rbp),%rax
    2ee0:	48 8d 50 01          	lea    0x1(%rax),%rdx
    2ee4:	48 89 55 e8          	mov    %rdx,-0x18(%rbp)
    2ee8:	c6 00 41             	movb   $0x41,(%rax)
    2eeb:	48 8b 45 e8          	mov    -0x18(%rbp),%rax
    2eef:	48 8d 50 01          	lea    0x1(%rax),%rdx
    2ef3:	48 89 55 e8          	mov    %rdx,-0x18(%rbp)
    2ef7:	c6 00 53             	movb   $0x53,(%rax)
    2efa:	48 8b 45 e8          	mov    -0x18(%rbp),%rax
    2efe:	48 8d 50 01          	lea    0x1(%rax),%rdx
    2f02:	48 89 55 e8          	mov    %rdx,-0x18(%rbp)
    2f06:	c6 00 48             	movb   $0x48,(%rax)
    2f09:	48 8b 45 e8          	mov    -0x18(%rbp),%rax
    2f0d:	48 8d 50 01          	lea    0x1(%rax),%rdx
    2f11:	48 89 55 e8          	mov    %rdx,-0x18(%rbp)
    2f15:	c6 00 b8             	movb   $0xb8,(%rax)
    2f18:	48 8b 55 e0          	mov    -0x20(%rbp),%rdx
    2f1c:	48 8b 45 e8          	mov    -0x18(%rbp),%rax
    2f20:	48 89 10             	mov    %rdx,(%rax)
    2f23:	48 83 45 e8 08       	addq   $0x8,-0x18(%rbp)
    2f28:	48 8b 45 e8          	mov    -0x18(%rbp),%rax
    2f2c:	48 8d 50 01          	lea    0x1(%rax),%rdx
    2f30:	48 89 55 e8          	mov    %rdx,-0x18(%rbp)
    2f34:	c6 00 ff             	movb   $0xff,(%rax)
    2f37:	48 8b 45 e8          	mov    -0x18(%rbp),%rax
    2f3b:	48 8d 50 01          	lea    0x1(%rax),%rdx
    2f3f:	48 89 55 e8          	mov    %rdx,-0x18(%rbp)
    2f43:	c6 00 d0             	movb   $0xd0,(%rax)
    2f46:	48 8b 45 e8          	mov    -0x18(%rbp),%rax
    2f4a:	48 8d 50 01          	lea    0x1(%rax),%rdx
    2f4e:	48 89 55 e8          	mov    %rdx,-0x18(%rbp)
    2f52:	c6 00 41             	movb   $0x41,(%rax)
    2f55:	48 8b 45 e8          	mov    -0x18(%rbp),%rax
    2f59:	48 8d 50 01          	lea    0x1(%rax),%rdx
    2f5d:	48 89 55 e8          	mov    %rdx,-0x18(%rbp)
    2f61:	c6 00 5b             	movb   $0x5b,(%rax)
    2f64:	48 8b 45 e8          	mov    -0x18(%rbp),%rax
    2f68:	48 8d 50 01          	lea    0x1(%rax),%rdx
    2f6c:	48 89 55 e8          	mov    %rdx,-0x18(%rbp)
    2f70:	c6 00 41             	movb   $0x41,(%rax)
    2f73:	48 8b 45 e8          	mov    -0x18(%rbp),%rax
    2f77:	48 8d 50 01          	lea    0x1(%rax),%rdx
    2f7b:	48 89 55 e8          	mov    %rdx,-0x18(%rbp)
    2f7f:	c6 00 5a             	movb   $0x5a,(%rax)
    2f82:	48 8b 45 e8          	mov    -0x18(%rbp),%rax
    2f86:	48 8d 50 01          	lea    0x1(%rax),%rdx
    2f8a:	48 89 55 e8          	mov    %rdx,-0x18(%rbp)
    2f8e:	c6 00 41             	movb   $0x41,(%rax)
    2f91:	48 8b 45 e8          	mov    -0x18(%rbp),%rax
    2f95:	48 8d 50 01          	lea    0x1(%rax),%rdx
    2f99:	48 89 55 e8          	mov    %rdx,-0x18(%rbp)
    2f9d:	c6 00 59             	movb   $0x59,(%rax)
    2fa0:	48 8b 45 e8          	mov    -0x18(%rbp),%rax
    2fa4:	48 8d 50 01          	lea    0x1(%rax),%rdx
    2fa8:	48 89 55 e8          	mov    %rdx,-0x18(%rbp)
    2fac:	c6 00 41             	movb   $0x41,(%rax)
    2faf:	48 8b 45 e8          	mov    -0x18(%rbp),%rax
    2fb3:	48 8d 50 01          	lea    0x1(%rax),%rdx
    2fb7:	48 89 55 e8          	mov    %rdx,-0x18(%rbp)
    2fbb:	c6 00 58             	movb   $0x58,(%rax)
    2fbe:	48 8b 45 e8          	mov    -0x18(%rbp),%rax
    2fc2:	48 8d 50 01          	lea    0x1(%rax),%rdx
    2fc6:	48 89 55 e8          	mov    %rdx,-0x18(%rbp)
    2fca:	c6 00 eb             	movb   $0xeb,(%rax)
    2fcd:	48 8b 45 e8          	mov    -0x18(%rbp),%rax
    2fd1:	48 2b 45 f0          	sub    -0x10(%rbp),%rax
    2fd5:	89 c1                	mov    %eax,%ecx
    2fd7:	b8 77 00 00 00       	mov    $0x77,%eax
    2fdc:	29 c8                	sub    %ecx,%eax
    2fde:	89 c2                	mov    %eax,%edx
    2fe0:	48 8b 45 e8          	mov    -0x18(%rbp),%rax
    2fe4:	88 10                	mov    %dl,(%rax)
    2fe6:	b8 78 00 00 00       	mov    $0x78,%eax
    2feb:	48 8b 55 f8          	mov    -0x8(%rbp),%rdx
    2fef:	64 48 2b 14 25 28 00 	sub    %fs:0x28,%rdx
    2ff6:	00 00 
    2ff8:	74 05                	je     2fff <inject_unmap_segment+0x200>
    2ffa:	e8 51 e1 ff ff       	call   1150 <__stack_chk_fail@plt>
    2fff:	c9                   	leave  
    3000:	c3                   	ret    

0000000000003001 <inject_seg_load>:
    3001:	f3 0f 1e fa          	endbr64 
    3005:	55                   	push   %rbp
    3006:	48 89 e5             	mov    %rsp,%rbp
    3009:	48 83 ec 40          	sub    $0x40,%rsp
    300d:	48 89 7d d8          	mov    %rdi,-0x28(%rbp)
    3011:	48 89 75 d0          	mov    %rsi,-0x30(%rbp)
    3015:	89 55 cc             	mov    %edx,-0x34(%rbp)
    3018:	89 4d c8             	mov    %ecx,-0x38(%rbp)
    301b:	44 89 45 c4          	mov    %r8d,-0x3c(%rbp)
    301f:	64 48 8b 04 25 28 00 	mov    %fs:0x28,%rax
    3026:	00 00 
    3028:	48 89 45 f8          	mov    %rax,-0x8(%rbp)
    302c:	31 c0                	xor    %eax,%eax
    302e:	48 8b 55 d8          	mov    -0x28(%rbp),%rdx
    3032:	48 8b 45 d0          	mov    -0x30(%rbp),%rax
    3036:	48 01 d0             	add    %rdx,%rax
    3039:	48 89 45 e8          	mov    %rax,-0x18(%rbp)
    303d:	48 8b 45 e8          	mov    -0x18(%rbp),%rax
    3041:	48 89 45 f0          	mov    %rax,-0x10(%rbp)
    3045:	48 8b 45 e8          	mov    -0x18(%rbp),%rax
    3049:	48 8d 50 01          	lea    0x1(%rax),%rdx
    304d:	48 89 55 e8          	mov    %rdx,-0x18(%rbp)
    3051:	c6 00 48             	movb   $0x48,(%rax)
    3054:	48 8b 45 e8          	mov    -0x18(%rbp),%rax
    3058:	48 8d 50 01          	lea    0x1(%rax),%rdx
    305c:	48 89 55 e8          	mov    %rdx,-0x18(%rbp)
    3060:	c6 00 b8             	movb   $0xb8,(%rax)
    3063:	48 8d 05 02 30 00 00 	lea    0x3002(%rip),%rax        # 606c <gs+0xc>
    306a:	48 89 45 e0          	mov    %rax,-0x20(%rbp)
    306e:	48 8b 55 e0          	mov    -0x20(%rbp),%rdx
    3072:	48 8b 45 e8          	mov    -0x18(%rbp),%rax
    3076:	48 89 10             	mov    %rdx,(%rax)
    3079:	48 83 45 e8 08       	addq   $0x8,-0x18(%rbp)
    307e:	48 8b 45 e8          	mov    -0x18(%rbp),%rax
    3082:	48 8d 50 01          	lea    0x1(%rax),%rdx
    3086:	48 89 55 e8          	mov    %rdx,-0x18(%rbp)
    308a:	c6 00 48             	movb   $0x48,(%rax)
    308d:	48 8b 45 e8          	mov    -0x18(%rbp),%rax
    3091:	48 8d 50 01          	lea    0x1(%rax),%rdx
    3095:	48 89 55 e8          	mov    %rdx,-0x18(%rbp)
    3099:	c6 00 8b             	movb   $0x8b,(%rax)
    309c:	48 8b 45 e8          	mov    -0x18(%rbp),%rax
    30a0:	48 8d 50 01          	lea    0x1(%rax),%rdx
    30a4:	48 89 55 e8          	mov    %rdx,-0x18(%rbp)
    30a8:	c6 00 00             	movb   $0x0,(%rax)
    30ab:	48 8b 45 e8          	mov    -0x18(%rbp),%rax
    30af:	48 8d 50 01          	lea    0x1(%rax),%rdx
    30b3:	48 89 55 e8          	mov    %rdx,-0x18(%rbp)
    30b7:	c6 00 44             	movb   $0x44,(%rax)
    30ba:	48 8b 45 e8          	mov    -0x18(%rbp),%rax
    30be:	48 8d 50 01          	lea    0x1(%rax),%rdx
    30c2:	48 89 55 e8          	mov    %rdx,-0x18(%rbp)
    30c6:	c6 00 89             	movb   $0x89,(%rax)
    30c9:	8b 45 c8             	mov    -0x38(%rbp),%eax
    30cc:	8d 0c c5 00 00 00 00 	lea    0x0(,%rax,8),%ecx
    30d3:	48 8b 45 e8          	mov    -0x18(%rbp),%rax
    30d7:	48 8d 50 01          	lea    0x1(%rax),%rdx
    30db:	48 89 55 e8          	mov    %rdx,-0x18(%rbp)
    30df:	83 c9 c7             	or     $0xffffffc7,%ecx
    30e2:	89 ca                	mov    %ecx,%edx
    30e4:	88 10                	mov    %dl,(%rax)
    30e6:	48 8b 45 e8          	mov    -0x18(%rbp),%rax
    30ea:	48 8d 50 01          	lea    0x1(%rax),%rdx
    30ee:	48 89 55 e8          	mov    %rdx,-0x18(%rbp)
    30f2:	c6 00 44             	movb   $0x44,(%rax)
    30f5:	48 8b 45 e8          	mov    -0x18(%rbp),%rax
    30f9:	48 8d 50 01          	lea    0x1(%rax),%rdx
    30fd:	48 89 55 e8          	mov    %rdx,-0x18(%rbp)
    3101:	c6 00 89             	movb   $0x89,(%rax)
    3104:	8b 45 c4             	mov    -0x3c(%rbp),%eax
    3107:	8d 0c c5 00 00 00 00 	lea    0x0(,%rax,8),%ecx
    310e:	48 8b 45 e8          	mov    -0x18(%rbp),%rax
    3112:	48 8d 50 01          	lea    0x1(%rax),%rdx
    3116:	48 89 55 e8          	mov    %rdx,-0x18(%rbp)
    311a:	83 c9 c6             	or     $0xffffffc6,%ecx
    311d:	89 ca                	mov    %ecx,%edx
    311f:	88 10                	mov    %dl,(%rax)
    3121:	48 8b 45 e8          	mov    -0x18(%rbp),%rax
    3125:	48 8d 50 01          	lea    0x1(%rax),%rdx
    3129:	48 89 55 e8          	mov    %rdx,-0x18(%rbp)
    312d:	c6 00 48             	movb   $0x48,(%rax)
    3130:	48 8b 45 e8          	mov    -0x18(%rbp),%rax
    3134:	48 8d 50 01          	lea    0x1(%rax),%rdx
    3138:	48 89 55 e8          	mov    %rdx,-0x18(%rbp)
    313c:	c6 00 8b             	movb   $0x8b,(%rax)
    313f:	48 8b 45 e8          	mov    -0x18(%rbp),%rax
    3143:	48 8d 50 01          	lea    0x1(%rax),%rdx
    3147:	48 89 55 e8          	mov    %rdx,-0x18(%rbp)
    314b:	c6 00 04             	movb   $0x4,(%rax)
    314e:	48 8b 45 e8          	mov    -0x18(%rbp),%rax
    3152:	48 8d 50 01          	lea    0x1(%rax),%rdx
    3156:	48 89 55 e8          	mov    %rdx,-0x18(%rbp)
    315a:	c6 00 f8             	movb   $0xf8,(%rax)
    315d:	48 8b 45 e8          	mov    -0x18(%rbp),%rax
    3161:	48 8d 50 01          	lea    0x1(%rax),%rdx
    3165:	48 89 55 e8          	mov    %rdx,-0x18(%rbp)
    3169:	c6 00 8b             	movb   $0x8b,(%rax)
    316c:	48 8b 45 e8          	mov    -0x18(%rbp),%rax
    3170:	48 8d 50 01          	lea    0x1(%rax),%rdx
    3174:	48 89 55 e8          	mov    %rdx,-0x18(%rbp)
    3178:	c6 00 04             	movb   $0x4,(%rax)
    317b:	48 8b 45 e8          	mov    -0x18(%rbp),%rax
    317f:	48 8d 50 01          	lea    0x1(%rax),%rdx
    3183:	48 89 55 e8          	mov    %rdx,-0x18(%rbp)
    3187:	c6 00 b0             	movb   $0xb0,(%rax)
    318a:	48 8b 45 e8          	mov    -0x18(%rbp),%rax
    318e:	48 8d 50 01          	lea    0x1(%rax),%rdx
    3192:	48 89 55 e8          	mov    %rdx,-0x18(%rbp)
    3196:	c6 00 41             	movb   $0x41,(%rax)
    3199:	48 8b 45 e8          	mov    -0x18(%rbp),%rax
    319d:	48 8d 50 01          	lea    0x1(%rax),%rdx
    31a1:	48 89 55 e8          	mov    %rdx,-0x18(%rbp)
    31a5:	c6 00 89             	movb   $0x89,(%rax)
    31a8:	8b 45 cc             	mov    -0x34(%rbp),%eax
    31ab:	89 c1                	mov    %eax,%ecx
    31ad:	48 8b 45 e8          	mov    -0x18(%rbp),%rax
    31b1:	48 8d 50 01          	lea    0x1(%rax),%rdx
    31b5:	48 89 55 e8          	mov    %rdx,-0x18(%rbp)
    31b9:	83 c9 c0             	or     $0xffffffc0,%ecx
    31bc:	89 ca                	mov    %ecx,%edx
    31be:	88 10                	mov    %dl,(%rax)
    31c0:	48 8b 45 e8          	mov    -0x18(%rbp),%rax
    31c4:	48 8d 50 01          	lea    0x1(%rax),%rdx
    31c8:	48 89 55 e8          	mov    %rdx,-0x18(%rbp)
    31cc:	c6 00 eb             	movb   $0xeb,(%rax)
    31cf:	48 8b 45 e8          	mov    -0x18(%rbp),%rax
    31d3:	48 2b 45 f0          	sub    -0x10(%rbp),%rax
    31d7:	89 c1                	mov    %eax,%ecx
    31d9:	b8 77 00 00 00       	mov    $0x77,%eax
    31de:	29 c8                	sub    %ecx,%eax
    31e0:	89 c2                	mov    %eax,%edx
    31e2:	48 8b 45 e8          	mov    -0x18(%rbp),%rax
    31e6:	88 10                	mov    %dl,(%rax)
    31e8:	b8 78 00 00 00       	mov    $0x78,%eax
    31ed:	48 8b 55 f8          	mov    -0x8(%rbp),%rdx
    31f1:	64 48 2b 14 25 28 00 	sub    %fs:0x28,%rdx
    31f8:	00 00 
    31fa:	74 05                	je     3201 <inject_seg_load+0x200>
    31fc:	e8 4f df ff ff       	call   1150 <__stack_chk_fail@plt>
    3201:	c9                   	leave  
    3202:	c3                   	ret    

0000000000003203 <inject_seg_store>:
    3203:	f3 0f 1e fa          	endbr64 
    3207:	55                   	push   %rbp
    3208:	48 89 e5             	mov    %rsp,%rbp
    320b:	48 83 ec 40          	sub    $0x40,%rsp
    320f:	48 89 7d d8          	mov    %rdi,-0x28(%rbp)
    3213:	48 89 75 d0          	mov    %rsi,-0x30(%rbp)
    3217:	89 55 cc             	mov    %edx,-0x34(%rbp)
    321a:	89 4d c8             	mov    %ecx,-0x38(%rbp)
    321d:	44 89 45 c4          	mov    %r8d,-0x3c(%rbp)
    3221:	64 48 8b 04 25 28 00 	mov    %fs:0x28,%rax
    3228:	00 00 
    322a:	48 89 45 f8          	mov    %rax,-0x8(%rbp)
    322e:	31 c0                	xor    %eax,%eax
    3230:	48 8b 55 d8          	mov    -0x28(%rbp),%rdx
    3234:	48 8b 45 d0          	mov    -0x30(%rbp),%rax
    3238:	48 01 d0             	add    %rdx,%rax
    323b:	48 89 45 e8          	mov    %rax,-0x18(%rbp)
    323f:	48 8b 45 e8          	mov    -0x18(%rbp),%rax
    3243:	48 89 45 f0          	mov    %rax,-0x10(%rbp)
    3247:	48 8b 45 e8          	mov    -0x18(%rbp),%rax
    324b:	48 8d 50 01          	lea    0x1(%rax),%rdx
    324f:	48 89 55 e8          	mov    %rdx,-0x18(%rbp)
    3253:	c6 00 48             	movb   $0x48,(%rax)
    3256:	48 8b 45 e8          	mov    -0x18(%rbp),%rax
    325a:	48 8d 50 01          	lea    0x1(%rax),%rdx
    325e:	48 89 55 e8          	mov    %rdx,-0x18(%rbp)
    3262:	c6 00 b8             	movb   $0xb8,(%rax)
    3265:	48 8d 05 00 2e 00 00 	lea    0x2e00(%rip),%rax        # 606c <gs+0xc>
    326c:	48 89 45 e0          	mov    %rax,-0x20(%rbp)
    3270:	48 8b 55 e0          	mov    -0x20(%rbp),%rdx
    3274:	48 8b 45 e8          	mov    -0x18(%rbp),%rax
    3278:	48 89 10             	mov    %rdx,(%rax)
    327b:	48 83 45 e8 08       	addq   $0x8,-0x18(%rbp)
    3280:	48 8b 45 e8          	mov    -0x18(%rbp),%rax
    3284:	48 8d 50 01          	lea    0x1(%rax),%rdx
    3288:	48 89 55 e8          	mov    %rdx,-0x18(%rbp)
    328c:	c6 00 48             	movb   $0x48,(%rax)
    328f:	48 8b 45 e8          	mov    -0x18(%rbp),%rax
    3293:	48 8d 50 01          	lea    0x1(%rax),%rdx
    3297:	48 89 55 e8          	mov    %rdx,-0x18(%rbp)
    329b:	c6 00 8b             	movb   $0x8b,(%rax)
    329e:	48 8b 45 e8          	mov    -0x18(%rbp),%rax
    32a2:	48 8d 50 01          	lea    0x1(%rax),%rdx
    32a6:	48 89 55 e8          	mov    %rdx,-0x18(%rbp)
    32aa:	c6 00 00             	movb   $0x0,(%rax)
    32ad:	48 8b 45 e8          	mov    -0x18(%rbp),%rax
    32b1:	48 8d 50 01          	lea    0x1(%rax),%rdx
    32b5:	48 89 55 e8          	mov    %rdx,-0x18(%rbp)
    32b9:	c6 00 44             	movb   $0x44,(%rax)
    32bc:	48 8b 45 e8          	mov    -0x18(%rbp),%rax
    32c0:	48 8d 50 01          	lea    0x1(%rax),%rdx
    32c4:	48 89 55 e8          	mov    %rdx,-0x18(%rbp)
    32c8:	c6 00 89             	movb   $0x89,(%rax)
    32cb:	8b 45 cc             	mov    -0x34(%rbp),%eax
    32ce:	8d 0c c5 00 00 00 00 	lea    0x0(,%rax,8),%ecx
    32d5:	48 8b 45 e8          	mov    -0x18(%rbp),%rax
    32d9:	48 8d 50 01          	lea    0x1(%rax),%rdx
    32dd:	48 89 55 e8          	mov    %rdx,-0x18(%rbp)
    32e1:	83 c9 c7             	or     $0xffffffc7,%ecx
    32e4:	89 ca                	mov    %ecx,%edx
    32e6:	88 10                	mov    %dl,(%rax)
    32e8:	48 8b 45 e8          	mov    -0x18(%rbp),%rax
    32ec:	48 8d 50 01          	lea    0x1(%rax),%rdx
    32f0:	48 89 55 e8          	mov    %rdx,-0x18(%rbp)
    32f4:	c6 00 44             	movb   $0x44,(%rax)
    32f7:	48 8b 45 e8          	mov    -0x18(%rbp),%rax
    32fb:	48 8d 50 01          	lea    0x1(%rax),%rdx
    32ff:	48 89 55 e8          	mov    %rdx,-0x18(%rbp)
    3303:	c6 00 89             	movb   $0x89,(%rax)
    3306:	8b 45 c8             	mov    -0x38(%rbp),%eax
    3309:	8d 0c c5 00 00 00 00 	lea    0x0(,%rax,8),%ecx
    3310:	48 8b 45 e8          	mov    -0x18(%rbp),%rax
    3314:	48 8d 50 01          	lea    0x1(%rax),%rdx
    3318:	48 89 55 e8          	mov    %rdx,-0x18(%rbp)
    331c:	83 c9 c6             	or     $0xffffffc6,%ecx
    331f:	89 ca                	mov    %ecx,%edx
    3321:	88 10                	mov    %dl,(%rax)
    3323:	48 8b 45 e8          	mov    -0x18(%rbp),%rax
    3327:	48 8d 50 01          	lea    0x1(%rax),%rdx
    332b:	48 89 55 e8          	mov    %rdx,-0x18(%rbp)
    332f:	c6 00 44             	movb   $0x44,(%rax)
    3332:	48 8b 45 e8          	mov    -0x18(%rbp),%rax
    3336:	48 8d 50 01          	lea    0x1(%rax),%rdx
    333a:	48 89 55 e8          	mov    %rdx,-0x18(%rbp)
    333e:	c6 00 89             	movb   $0x89,(%rax)
    3341:	8b 45 c4             	mov    -0x3c(%rbp),%eax
    3344:	8d 0c c5 00 00 00 00 	lea    0x0(,%rax,8),%ecx
    334b:	48 8b 45 e8          	mov    -0x18(%rbp),%rax
    334f:	48 8d 50 01          	lea    0x1(%rax),%rdx
    3353:	48 89 55 e8          	mov    %rdx,-0x18(%rbp)
    3357:	83 c9 c2             	or     $0xffffffc2,%ecx
    335a:	89 ca                	mov    %ecx,%edx
    335c:	88 10                	mov    %dl,(%rax)
    335e:	48 8b 45 e8          	mov    -0x18(%rbp),%rax
    3362:	48 8d 50 01          	lea    0x1(%rax),%rdx
    3366:	48 89 55 e8          	mov    %rdx,-0x18(%rbp)
    336a:	c6 00 48             	movb   $0x48,(%rax)
    336d:	48 8b 45 e8          	mov    -0x18(%rbp),%rax
    3371:	48 8d 50 01          	lea    0x1(%rax),%rdx
    3375:	48 89 55 e8          	mov    %rdx,-0x18(%rbp)
    3379:	c6 00 8b             	movb   $0x8b,(%rax)
    337c:	48 8b 45 e8          	mov    -0x18(%rbp),%rax
    3380:	48 8d 50 01          	lea    0x1(%rax),%rdx
    3384:	48 89 55 e8          	mov    %rdx,-0x18(%rbp)
    3388:	c6 00 04             	movb   $0x4,(%rax)
    338b:	48 8b 45 e8          	mov    -0x18(%rbp),%rax
    338f:	48 8d 50 01          	lea    0x1(%rax),%rdx
    3393:	48 89 55 e8          	mov    %rdx,-0x18(%rbp)
    3397:	c6 00 f8             	movb   $0xf8,(%rax)
    339a:	48 8b 45 e8          	mov    -0x18(%rbp),%rax
    339e:	48 8d 50 01          	lea    0x1(%rax),%rdx
    33a2:	48 89 55 e8          	mov    %rdx,-0x18(%rbp)
    33a6:	c6 00 89             	movb   $0x89,(%rax)
    33a9:	48 8b 45 e8          	mov    -0x18(%rbp),%rax
    33ad:	48 8d 50 01          	lea    0x1(%rax),%rdx
    33b1:	48 89 55 e8          	mov    %rdx,-0x18(%rbp)
    33b5:	c6 00 14             	movb   $0x14,(%rax)
    33b8:	48 8b 45 e8          	mov    -0x18(%rbp),%rax
    33bc:	48 8d 50 01          	lea    0x1(%rax),%rdx
    33c0:	48 89 55 e8          	mov    %rdx,-0x18(%rbp)
    33c4:	c6 00 b0             	movb   $0xb0,(%rax)
    33c7:	48 8b 45 e8          	mov    -0x18(%rbp),%rax
    33cb:	48 8d 50 01          	lea    0x1(%rax),%rdx
    33cf:	48 89 55 e8          	mov    %rdx,-0x18(%rbp)
    33d3:	c6 00 eb             	movb   $0xeb,(%rax)
    33d6:	48 8b 45 e8          	mov    -0x18(%rbp),%rax
    33da:	48 2b 45 f0          	sub    -0x10(%rbp),%rax
    33de:	89 c1                	mov    %eax,%ecx
    33e0:	b8 77 00 00 00       	mov    $0x77,%eax
    33e5:	29 c8                	sub    %ecx,%eax
    33e7:	89 c2                	mov    %eax,%edx
    33e9:	48 8b 45 e8          	mov    -0x18(%rbp),%rax
    33ed:	88 10                	mov    %dl,(%rax)
    33ef:	b8 78 00 00 00       	mov    $0x78,%eax
    33f4:	48 8b 55 f8          	mov    -0x8(%rbp),%rdx
    33f8:	64 48 2b 14 25 28 00 	sub    %fs:0x28,%rdx
    33ff:	00 00 
    3401:	74 05                	je     3408 <inject_seg_store+0x205>
    3403:	e8 48 dd ff ff       	call   1150 <__stack_chk_fail@plt>
    3408:	c9                   	leave  
    3409:	c3                   	ret    

000000000000340a <inject_load_program>:
    340a:	f3 0f 1e fa          	endbr64 
    340e:	55                   	push   %rbp
    340f:	48 89 e5             	mov    %rsp,%rbp
    3412:	48 83 ec 40          	sub    $0x40,%rsp
    3416:	48 89 7d d8          	mov    %rdi,-0x28(%rbp)
    341a:	48 89 75 d0          	mov    %rsi,-0x30(%rbp)
    341e:	89 55 cc             	mov    %edx,-0x34(%rbp)
    3421:	89 4d c8             	mov    %ecx,-0x38(%rbp)
    3424:	64 48 8b 04 25 28 00 	mov    %fs:0x28,%rax
    342b:	00 00 
    342d:	48 89 45 f8          	mov    %rax,-0x8(%rbp)
    3431:	31 c0                	xor    %eax,%eax
    3433:	48 8d 05 c0 e9 ff ff 	lea    -0x1640(%rip),%rax        # 1dfa <load_program>
    343a:	48 89 45 e0          	mov    %rax,-0x20(%rbp)
    343e:	48 8b 55 d8          	mov    -0x28(%rbp),%rdx
    3442:	48 8b 45 d0          	mov    -0x30(%rbp),%rax
    3446:	48 01 d0             	add    %rdx,%rax
    3449:	48 89 45 f0          	mov    %rax,-0x10(%rbp)
    344d:	48 8b 45 f0          	mov    -0x10(%rbp),%rax
    3451:	48 8d 50 01          	lea    0x1(%rax),%rdx
    3455:	48 89 55 f0          	mov    %rdx,-0x10(%rbp)
    3459:	c6 00 44             	movb   $0x44,(%rax)
    345c:	48 8b 45 f0          	mov    -0x10(%rbp),%rax
    3460:	48 8d 50 01          	lea    0x1(%rax),%rdx
    3464:	48 89 55 f0          	mov    %rdx,-0x10(%rbp)
    3468:	c6 00 89             	movb   $0x89,(%rax)
    346b:	8b 45 cc             	mov    -0x34(%rbp),%eax
    346e:	8d 0c c5 00 00 00 00 	lea    0x0(,%rax,8),%ecx
    3475:	48 8b 45 f0          	mov    -0x10(%rbp),%rax
    3479:	48 8d 50 01          	lea    0x1(%rax),%rdx
    347d:	48 89 55 f0          	mov    %rdx,-0x10(%rbp)
    3481:	83 c9 c7             	or     $0xffffffc7,%ecx
    3484:	89 ca                	mov    %ecx,%edx
    3486:	88 10                	mov    %dl,(%rax)
    3488:	48 8b 45 f0          	mov    -0x10(%rbp),%rax
    348c:	48 8d 50 01          	lea    0x1(%rax),%rdx
    3490:	48 89 55 f0          	mov    %rdx,-0x10(%rbp)
    3494:	c6 00 44             	movb   $0x44,(%rax)
    3497:	48 8b 45 f0          	mov    -0x10(%rbp),%rax
    349b:	48 8d 50 01          	lea    0x1(%rax),%rdx
    349f:	48 89 55 f0          	mov    %rdx,-0x10(%rbp)
    34a3:	c6 00 89             	movb   $0x89,(%rax)
    34a6:	8b 45 c8             	mov    -0x38(%rbp),%eax
    34a9:	8d 0c c5 00 00 00 00 	lea    0x0(,%rax,8),%ecx
    34b0:	48 8b 45 f0          	mov    -0x10(%rbp),%rax
    34b4:	48 8d 50 01          	lea    0x1(%rax),%rdx
    34b8:	48 89 55 f0          	mov    %rdx,-0x10(%rbp)
    34bc:	83 c9 c6             	or     $0xffffffc6,%ecx
    34bf:	89 ca                	mov    %ecx,%edx
    34c1:	88 10                	mov    %dl,(%rax)
    34c3:	48 8b 45 f0          	mov    -0x10(%rbp),%rax
    34c7:	48 8d 50 01          	lea    0x1(%rax),%rdx
    34cb:	48 89 55 f0          	mov    %rdx,-0x10(%rbp)
    34cf:	c6 00 48             	movb   $0x48,(%rax)
    34d2:	48 8b 45 f0          	mov    -0x10(%rbp),%rax
    34d6:	48 8d 50 01          	lea    0x1(%rax),%rdx
    34da:	48 89 55 f0          	mov    %rdx,-0x10(%rbp)
    34de:	c6 00 b8             	movb   $0xb8,(%rax)
    34e1:	48 8d 05 78 2b 00 00 	lea    0x2b78(%rip),%rax        # 6060 <gs>
    34e8:	48 89 45 e8          	mov    %rax,-0x18(%rbp)
    34ec:	48 8b 55 e8          	mov    -0x18(%rbp),%rdx
    34f0:	48 8b 45 f0          	mov    -0x10(%rbp),%rax
    34f4:	48 89 10             	mov    %rdx,(%rax)
    34f7:	48 83 45 f0 08       	addq   $0x8,-0x10(%rbp)
    34fc:	48 8b 45 f0          	mov    -0x10(%rbp),%rax
    3500:	48 8d 50 01          	lea    0x1(%rax),%rdx
    3504:	48 89 55 f0          	mov    %rdx,-0x10(%rbp)
    3508:	c6 00 89             	movb   $0x89,(%rax)
    350b:	48 8b 45 f0          	mov    -0x10(%rbp),%rax
    350f:	48 8d 50 01          	lea    0x1(%rax),%rdx
    3513:	48 89 55 f0          	mov    %rdx,-0x10(%rbp)
    3517:	c6 00 30             	movb   $0x30,(%rax)
    351a:	48 8b 45 f0          	mov    -0x10(%rbp),%rax
    351e:	48 8d 50 01          	lea    0x1(%rax),%rdx
    3522:	48 89 55 f0          	mov    %rdx,-0x10(%rbp)
    3526:	c6 00 85             	movb   $0x85,(%rax)
    3529:	48 8b 45 f0          	mov    -0x10(%rbp),%rax
    352d:	48 8d 50 01          	lea    0x1(%rax),%rdx
    3531:	48 89 55 f0          	mov    %rdx,-0x10(%rbp)
    3535:	c6 00 ff             	movb   $0xff,(%rax)
    3538:	48 8b 45 f0          	mov    -0x10(%rbp),%rax
    353c:	48 8d 50 01          	lea    0x1(%rax),%rdx
    3540:	48 89 55 f0          	mov    %rdx,-0x10(%rbp)
    3544:	c6 00 75             	movb   $0x75,(%rax)
    3547:	48 8b 45 f0          	mov    -0x10(%rbp),%rax
    354b:	48 8d 50 01          	lea    0x1(%rax),%rdx
    354f:	48 89 55 f0          	mov    %rdx,-0x10(%rbp)
    3553:	c6 00 05             	movb   $0x5,(%rax)
    3556:	48 8b 45 f0          	mov    -0x10(%rbp),%rax
    355a:	48 8d 50 01          	lea    0x1(%rax),%rdx
    355e:	48 89 55 f0          	mov    %rdx,-0x10(%rbp)
    3562:	c6 00 48             	movb   $0x48,(%rax)
    3565:	48 8b 45 f0          	mov    -0x10(%rbp),%rax
    3569:	48 8d 50 01          	lea    0x1(%rax),%rdx
    356d:	48 89 55 f0          	mov    %rdx,-0x10(%rbp)
    3571:	c6 00 8b             	movb   $0x8b,(%rax)
    3574:	48 8b 45 f0          	mov    -0x10(%rbp),%rax
    3578:	48 8d 50 01          	lea    0x1(%rax),%rdx
    357c:	48 89 55 f0          	mov    %rdx,-0x10(%rbp)
    3580:	c6 00 40             	movb   $0x40,(%rax)
    3583:	48 8b 45 f0          	mov    -0x10(%rbp),%rax
    3587:	48 8d 50 01          	lea    0x1(%rax),%rdx
    358b:	48 89 55 f0          	mov    %rdx,-0x10(%rbp)
    358f:	c6 00 04             	movb   $0x4,(%rax)
    3592:	48 8b 45 f0          	mov    -0x10(%rbp),%rax
    3596:	48 8d 50 01          	lea    0x1(%rax),%rdx
    359a:	48 89 55 f0          	mov    %rdx,-0x10(%rbp)
    359e:	c6 00 c3             	movb   $0xc3,(%rax)
    35a1:	48 8b 45 f0          	mov    -0x10(%rbp),%rax
    35a5:	48 8d 50 01          	lea    0x1(%rax),%rdx
    35a9:	48 89 55 f0          	mov    %rdx,-0x10(%rbp)
    35ad:	c6 00 41             	movb   $0x41,(%rax)
    35b0:	48 8b 45 f0          	mov    -0x10(%rbp),%rax
    35b4:	48 8d 50 01          	lea    0x1(%rax),%rdx
    35b8:	48 89 55 f0          	mov    %rdx,-0x10(%rbp)
    35bc:	c6 00 50             	movb   $0x50,(%rax)
    35bf:	48 8b 45 f0          	mov    -0x10(%rbp),%rax
    35c3:	48 8d 50 01          	lea    0x1(%rax),%rdx
    35c7:	48 89 55 f0          	mov    %rdx,-0x10(%rbp)
    35cb:	c6 00 41             	movb   $0x41,(%rax)
    35ce:	48 8b 45 f0          	mov    -0x10(%rbp),%rax
    35d2:	48 8d 50 01          	lea    0x1(%rax),%rdx
    35d6:	48 89 55 f0          	mov    %rdx,-0x10(%rbp)
    35da:	c6 00 51             	movb   $0x51,(%rax)
    35dd:	48 8b 45 f0          	mov    -0x10(%rbp),%rax
    35e1:	48 8d 50 01          	lea    0x1(%rax),%rdx
    35e5:	48 89 55 f0          	mov    %rdx,-0x10(%rbp)
    35e9:	c6 00 41             	movb   $0x41,(%rax)
    35ec:	48 8b 45 f0          	mov    -0x10(%rbp),%rax
    35f0:	48 8d 50 01          	lea    0x1(%rax),%rdx
    35f4:	48 89 55 f0          	mov    %rdx,-0x10(%rbp)
    35f8:	c6 00 52             	movb   $0x52,(%rax)
    35fb:	48 8b 45 f0          	mov    -0x10(%rbp),%rax
    35ff:	48 8d 50 01          	lea    0x1(%rax),%rdx
    3603:	48 89 55 f0          	mov    %rdx,-0x10(%rbp)
    3607:	c6 00 41             	movb   $0x41,(%rax)
    360a:	48 8b 45 f0          	mov    -0x10(%rbp),%rax
    360e:	48 8d 50 01          	lea    0x1(%rax),%rdx
    3612:	48 89 55 f0          	mov    %rdx,-0x10(%rbp)
    3616:	c6 00 53             	movb   $0x53,(%rax)
    3619:	48 8b 45 f0          	mov    -0x10(%rbp),%rax
    361d:	48 8d 50 01          	lea    0x1(%rax),%rdx
    3621:	48 89 55 f0          	mov    %rdx,-0x10(%rbp)
    3625:	c6 00 48             	movb   $0x48,(%rax)
    3628:	48 8b 45 f0          	mov    -0x10(%rbp),%rax
    362c:	48 8d 50 01          	lea    0x1(%rax),%rdx
    3630:	48 89 55 f0          	mov    %rdx,-0x10(%rbp)
    3634:	c6 00 b8             	movb   $0xb8,(%rax)
    3637:	48 8b 55 e0          	mov    -0x20(%rbp),%rdx
    363b:	48 8b 45 f0          	mov    -0x10(%rbp),%rax
    363f:	48 89 10             	mov    %rdx,(%rax)
    3642:	48 83 45 f0 08       	addq   $0x8,-0x10(%rbp)
    3647:	48 8b 45 f0          	mov    -0x10(%rbp),%rax
    364b:	48 8d 50 01          	lea    0x1(%rax),%rdx
    364f:	48 89 55 f0          	mov    %rdx,-0x10(%rbp)
    3653:	c6 00 ff             	movb   $0xff,(%rax)
    3656:	48 8b 45 f0          	mov    -0x10(%rbp),%rax
    365a:	48 8d 50 01          	lea    0x1(%rax),%rdx
    365e:	48 89 55 f0          	mov    %rdx,-0x10(%rbp)
    3662:	c6 00 d0             	movb   $0xd0,(%rax)
    3665:	48 8b 45 f0          	mov    -0x10(%rbp),%rax
    3669:	48 8d 50 01          	lea    0x1(%rax),%rdx
    366d:	48 89 55 f0          	mov    %rdx,-0x10(%rbp)
    3671:	c6 00 41             	movb   $0x41,(%rax)
    3674:	48 8b 45 f0          	mov    -0x10(%rbp),%rax
    3678:	48 8d 50 01          	lea    0x1(%rax),%rdx
    367c:	48 89 55 f0          	mov    %rdx,-0x10(%rbp)
    3680:	c6 00 5b             	movb   $0x5b,(%rax)
    3683:	48 8b 45 f0          	mov    -0x10(%rbp),%rax
    3687:	48 8d 50 01          	lea    0x1(%rax),%rdx
    368b:	48 89 55 f0          	mov    %rdx,-0x10(%rbp)
    368f:	c6 00 41             	movb   $0x41,(%rax)
    3692:	48 8b 45 f0          	mov    -0x10(%rbp),%rax
    3696:	48 8d 50 01          	lea    0x1(%rax),%rdx
    369a:	48 89 55 f0          	mov    %rdx,-0x10(%rbp)
    369e:	c6 00 5a             	movb   $0x5a,(%rax)
    36a1:	48 8b 45 f0          	mov    -0x10(%rbp),%rax
    36a5:	48 8d 50 01          	lea    0x1(%rax),%rdx
    36a9:	48 89 55 f0          	mov    %rdx,-0x10(%rbp)
    36ad:	c6 00 41             	movb   $0x41,(%rax)
    36b0:	48 8b 45 f0          	mov    -0x10(%rbp),%rax
    36b4:	48 8d 50 01          	lea    0x1(%rax),%rdx
    36b8:	48 89 55 f0          	mov    %rdx,-0x10(%rbp)
    36bc:	c6 00 59             	movb   $0x59,(%rax)
    36bf:	48 8b 45 f0          	mov    -0x10(%rbp),%rax
    36c3:	48 8d 50 01          	lea    0x1(%rax),%rdx
    36c7:	48 89 55 f0          	mov    %rdx,-0x10(%rbp)
    36cb:	c6 00 41             	movb   $0x41,(%rax)
    36ce:	48 8b 45 f0          	mov    -0x10(%rbp),%rax
    36d2:	48 8d 50 01          	lea    0x1(%rax),%rdx
    36d6:	48 89 55 f0          	mov    %rdx,-0x10(%rbp)
    36da:	c6 00 58             	movb   $0x58,(%rax)
    36dd:	48 8b 45 f0          	mov    -0x10(%rbp),%rax
    36e1:	48 8d 50 01          	lea    0x1(%rax),%rdx
    36e5:	48 89 55 f0          	mov    %rdx,-0x10(%rbp)
    36e9:	c6 00 c3             	movb   $0xc3,(%rax)
    36ec:	b8 78 00 00 00       	mov    $0x78,%eax
    36f1:	48 8b 55 f8          	mov    -0x8(%rbp),%rdx
    36f5:	64 48 2b 14 25 28 00 	sub    %fs:0x28,%rdx
    36fc:	00 00 
    36fe:	74 05                	je     3705 <inject_load_program+0x2fb>
    3700:	e8 4b da ff ff       	call   1150 <__stack_chk_fail@plt>
    3705:	c9                   	leave  
    3706:	c3                   	ret    

Disassembly of section .fini:

0000000000003708 <_fini>:
    3708:	f3 0f 1e fa          	endbr64 
    370c:	48 83 ec 08          	sub    $0x8,%rsp
    3710:	48 83 c4 08          	add    $0x8,%rsp
    3714:	c3                   	ret    
